GAS LISTING /tmp/ccnkn6oc.s 			page 1


   1              		.file	"MemoryAllocator.cpp"
   2              		.option pic
   3              		.option norelax
   4              		.text
   5              	.Ltext0:
   6              		.align	2
   7              		.globl	_ZN15MemoryAllocator9mem_allocEm
   9              	_ZN15MemoryAllocator9mem_allocEm:
  10              	.LFB0:
  11              		.file 1 "src/MemoryAllocator.cpp"
   1:src/MemoryAllocator.cpp **** //
   2:src/MemoryAllocator.cpp **** // Created by os on 5/16/24.
   3:src/MemoryAllocator.cpp **** //
   4:src/MemoryAllocator.cpp **** 
   5:src/MemoryAllocator.cpp **** #include "../h/MemoryAllocator.h"
   6:src/MemoryAllocator.cpp **** 
   7:src/MemoryAllocator.cpp **** #include "../lib/mem.h"
   8:src/MemoryAllocator.cpp **** 
   9:src/MemoryAllocator.cpp **** MemMeta* MemoryAllocator::firstFree = nullptr;
  10:src/MemoryAllocator.cpp **** MemMeta* MemoryAllocator::firstUsed = nullptr;
  11:src/MemoryAllocator.cpp **** 
  12:src/MemoryAllocator.cpp **** void *MemoryAllocator::mem_alloc(size_t size) {
  12              		.loc 1 12 47
  13              		.cfi_startproc
  14              	.LVL0:
  15 0000 130101FF 		addi	sp,sp,-16
  16              		.cfi_def_cfa_offset 16
  17 0004 23348100 		sd	s0,8(sp)
  18              		.cfi_offset 8, -8
  19 0008 13040101 		addi	s0,sp,16
  20              		.cfi_def_cfa 8, 0
  13:src/MemoryAllocator.cpp ****     MemMeta* curr;
  21              		.loc 1 13 5
  14:src/MemoryAllocator.cpp ****     MemMeta* curr2;
  22              		.loc 1 14 5
  15:src/MemoryAllocator.cpp ****     MemMeta* newUsed = nullptr;
  23              		.loc 1 15 5
  24              	.LVL1:
  16:src/MemoryAllocator.cpp ****     MemMeta* newFree = nullptr;
  25              		.loc 1 16 5
  17:src/MemoryAllocator.cpp ****     size_t actualSize;
  26              		.loc 1 17 5
  18:src/MemoryAllocator.cpp **** 
  19:src/MemoryAllocator.cpp **** 
  20:src/MemoryAllocator.cpp ****     // inicijalizacija pri prvom trazenju memorije posle boot-a
  21:src/MemoryAllocator.cpp ****     if (firstFree == nullptr) {
  27              		.loc 1 21 5
  28              		.loc 1 21 19 is_stmt 0
  29 000c 97070000 		ld	a5,.LANCHOR0
  29      83B70700 
  30              		.loc 1 21 5
  31 0014 63820704 		beqz	a5,.L16
  32              	.L2:
  22:src/MemoryAllocator.cpp ****         firstFree = (MemMeta*)HEAP_START_ADDR;
  23:src/MemoryAllocator.cpp ****         firstFree->size = ((((size_t)HEAP_END_ADDR - (size_t)HEAP_START_ADDR) - sizeof(MemMeta)) / 
  24:src/MemoryAllocator.cpp ****         firstFree->next = nullptr;
  25:src/MemoryAllocator.cpp ****     }
GAS LISTING /tmp/ccnkn6oc.s 			page 2


  26:src/MemoryAllocator.cpp **** 
  27:src/MemoryAllocator.cpp ****     curr = firstFree;
  33              		.loc 1 27 5 is_stmt 1
  34              		.loc 1 27 10 is_stmt 0
  35 0018 17060000 		ld	a2,.LANCHOR0
  35      03360600 
  36              	.LVL2:
  28:src/MemoryAllocator.cpp ****     actualSize = size + (size % MEM_BLOCK_SIZE ? 1 : 0) * (MEM_BLOCK_SIZE - size % MEM_BLOCK_SIZE);
  37              		.loc 1 28 5 is_stmt 1
  38              		.loc 1 28 31 is_stmt 0
  39 0020 9377F503 		andi	a5,a0,63
  40              		.loc 1 28 48
  41 0024 638A0706 		beqz	a5,.L13
  42 0028 93061000 		li	a3,1
  43              	.L3:
  44              		.loc 1 28 75 discriminator 4
  45 002c 13070004 		li	a4,64
  46 0030 3307F740 		sub	a4,a4,a5
  47              		.loc 1 28 57 discriminator 4
  48 0034 3307D702 		mul	a4,a4,a3
  49              		.loc 1 28 16 discriminator 4
  50 0038 3307A700 		add	a4,a4,a0
  51              	.LVL3:
  27:src/MemoryAllocator.cpp ****     actualSize = size + (size % MEM_BLOCK_SIZE ? 1 : 0) * (MEM_BLOCK_SIZE - size % MEM_BLOCK_SIZE);
  52              		.loc 1 27 10 discriminator 4
  53 003c 13050600 		mv	a0,a2
  54              	.LVL4:
  55              	.L5:
  29:src/MemoryAllocator.cpp **** 
  30:src/MemoryAllocator.cpp ****     while (curr != nullptr) {
  56              		.loc 1 30 5 is_stmt 1
  57              		.loc 1 30 17
  58 0040 63000506 		beqz	a0,.L4
  31:src/MemoryAllocator.cpp ****         if (curr->size > (actualSize + sizeof(MemMeta))) break; //nasli smo dovoljno veliki blok. j
  59              		.loc 1 31 9
  60              		.loc 1 31 19 is_stmt 0
  61 0044 83360500 		ld	a3,0(a0)
  62              		.loc 1 31 38
  63 0048 93070701 		addi	a5,a4,16
  64              		.loc 1 31 9
  65 004c 63EAD704 		bgtu	a3,a5,.L4
  32:src/MemoryAllocator.cpp ****         curr = (MemMeta*)curr->next;
  66              		.loc 1 32 9 is_stmt 1
  67              		.loc 1 32 14 is_stmt 0
  68 0050 03358500 		ld	a0,8(a0)
  69              	.LVL5:
  30:src/MemoryAllocator.cpp ****         if (curr->size > (actualSize + sizeof(MemMeta))) break; //nasli smo dovoljno veliki blok. j
  70              		.loc 1 30 5
  71 0054 6FF0DFFE 		j	.L5
  72              	.LVL6:
  73              	.L16:
  22:src/MemoryAllocator.cpp ****         firstFree->size = ((((size_t)HEAP_END_ADDR - (size_t)HEAP_START_ADDR) - sizeof(MemMeta)) / 
  74              		.loc 1 22 9 is_stmt 1
  22:src/MemoryAllocator.cpp ****         firstFree->size = ((((size_t)HEAP_END_ADDR - (size_t)HEAP_START_ADDR) - sizeof(MemMeta)) / 
  75              		.loc 1 22 19 is_stmt 0
  76 0058 97070000 		la	a5,HEAP_START_ADDR
  76      83B70700 
GAS LISTING /tmp/ccnkn6oc.s 			page 3


  77 0060 03B70700 		ld	a4,0(a5)
  78 0064 97060000 		lla	a3,.LANCHOR0
  78      93860600 
  79 006c 23B0E600 		sd	a4,0(a3)
  23:src/MemoryAllocator.cpp ****         firstFree->next = nullptr;
  80              		.loc 1 23 9 is_stmt 1
  23:src/MemoryAllocator.cpp ****         firstFree->next = nullptr;
  81              		.loc 1 23 52 is_stmt 0
  82 0070 97070000 		la	a5,HEAP_END_ADDR
  82      83B70700 
  83 0078 83B70700 		ld	a5,0(a5)
  84 007c B387E740 		sub	a5,a5,a4
  23:src/MemoryAllocator.cpp ****         firstFree->next = nullptr;
  85              		.loc 1 23 79
  86 0080 938707FF 		addi	a5,a5,-16
  23:src/MemoryAllocator.cpp ****         firstFree->next = nullptr;
  87              		.loc 1 23 116
  88 0084 93F707FC 		andi	a5,a5,-64
  23:src/MemoryAllocator.cpp ****         firstFree->next = nullptr;
  89              		.loc 1 23 25
  90 0088 2330F700 		sd	a5,0(a4)
  24:src/MemoryAllocator.cpp ****     }
  91              		.loc 1 24 9 is_stmt 1
  24:src/MemoryAllocator.cpp ****     }
  92              		.loc 1 24 20 is_stmt 0
  93 008c 83B70600 		ld	a5,0(a3)
  24:src/MemoryAllocator.cpp ****     }
  94              		.loc 1 24 25
  95 0090 23B40700 		sd	zero,8(a5)
  96 0094 6FF05FF8 		j	.L2
  97              	.LVL7:
  98              	.L13:
  28:src/MemoryAllocator.cpp **** 
  99              		.loc 1 28 48
 100 0098 93860700 		mv	a3,a5
 101 009c 6FF01FF9 		j	.L3
 102              	.LVL8:
 103              	.L4:
  33:src/MemoryAllocator.cpp ****     }
  34:src/MemoryAllocator.cpp **** 
  35:src/MemoryAllocator.cpp ****     if (curr == nullptr) return nullptr; //potencijalna nadogradnja: attemptDefrag();
 104              		.loc 1 35 5 is_stmt 1
 105 00a0 63080506 		beqz	a0,.L1
  36:src/MemoryAllocator.cpp **** 
  37:src/MemoryAllocator.cpp **** 
  38:src/MemoryAllocator.cpp ****     for(curr2 = firstFree; curr != firstFree && curr2->next != curr && curr2->next != 0; curr2 = (M
 106              		.loc 1 38 15 is_stmt 0
 107 00a4 93060600 		mv	a3,a2
 108 00a8 6F008000 		j	.L8
 109              	.LVL9:
 110              	.L14:
 111              		.loc 1 38 96
 112 00ac 93860700 		mv	a3,a5
 113              	.LVL10:
 114              	.L8:
 115              		.loc 1 38 69 is_stmt 1 discriminator 5
 116 00b0 6308C500 		beq	a0,a2,.L7
GAS LISTING /tmp/ccnkn6oc.s 			page 4


 117              		.loc 1 38 56 is_stmt 0 discriminator 2
 118 00b4 83B78600 		ld	a5,8(a3)
 119              		.loc 1 38 46 discriminator 2
 120 00b8 6384A700 		beq	a5,a0,.L7
 121              		.loc 1 38 69 discriminator 3
 122 00bc E39807FE 		bnez	a5,.L14
 123              	.L7:
  39:src/MemoryAllocator.cpp ****     newFree = (MemMeta*)((size_t)curr + actualSize + sizeof(MemMeta));
 124              		.loc 1 39 5 is_stmt 1
 125              		.loc 1 39 39 is_stmt 0
 126 00c0 B305E500 		add	a1,a0,a4
 127              		.loc 1 39 52
 128 00c4 13880501 		addi	a6,a1,16
 129              	.LVL11:
  40:src/MemoryAllocator.cpp ****     if (curr2 != firstFree) curr2->next = newFree;
 130              		.loc 1 40 5 is_stmt 1
 131 00c8 638AC604 		beq	a3,a2,.L9
 132              		.loc 1 40 29 discriminator 1
 133              		.loc 1 40 41 is_stmt 0 discriminator 1
 134 00cc 23B40601 		sd	a6,8(a3)
 135              	.L10:
  41:src/MemoryAllocator.cpp ****     else firstFree = newFree;
  42:src/MemoryAllocator.cpp ****     newFree->size = curr->size - actualSize - sizeof(MemMeta);
 136              		.loc 1 42 5 is_stmt 1
 137              		.loc 1 42 27 is_stmt 0
 138 00d0 83370500 		ld	a5,0(a0)
 139              		.loc 1 42 32
 140 00d4 B387E740 		sub	a5,a5,a4
 141              		.loc 1 42 45
 142 00d8 938707FF 		addi	a5,a5,-16
 143              		.loc 1 42 19
 144 00dc 23B8F500 		sd	a5,16(a1)
  43:src/MemoryAllocator.cpp ****     newFree->next = curr->next;
 145              		.loc 1 43 5 is_stmt 1
 146              		.loc 1 43 27 is_stmt 0
 147 00e0 83378500 		ld	a5,8(a0)
 148              		.loc 1 43 19
 149 00e4 2334F800 		sd	a5,8(a6)
  44:src/MemoryAllocator.cpp **** 
  45:src/MemoryAllocator.cpp ****     if (firstUsed == nullptr) {
 150              		.loc 1 45 5 is_stmt 1
 151              		.loc 1 45 19 is_stmt 0
 152 00e8 97070000 		ld	a5,.LANCHOR0+8
 152      83B70700 
 153              		.loc 1 45 5
 154 00f0 638C0702 		beqz	a5,.L17
 155              	.L11:
 156              	.LVL12:
  46:src/MemoryAllocator.cpp ****         firstUsed = curr;
  47:src/MemoryAllocator.cpp ****         firstUsed->size = actualSize;
  48:src/MemoryAllocator.cpp ****         firstUsed->next = nullptr;
  49:src/MemoryAllocator.cpp ****         newUsed = firstUsed;
  50:src/MemoryAllocator.cpp ****     }
  51:src/MemoryAllocator.cpp **** 
  52:src/MemoryAllocator.cpp ****     else {
  53:src/MemoryAllocator.cpp ****         for (curr2 = firstUsed; curr2->next != nullptr; curr2 = (MemMeta*)curr2->next);
 157              		.loc 1 53 45 is_stmt 1 discriminator 3
GAS LISTING /tmp/ccnkn6oc.s 			page 5


 158 00f4 93860700 		mv	a3,a5
 159              		.loc 1 53 40 is_stmt 0 discriminator 3
 160 00f8 83B78700 		ld	a5,8(a5)
 161              	.LVL13:
 162              		.loc 1 53 45 discriminator 3
 163 00fc E39C07FE 		bnez	a5,.L11
  54:src/MemoryAllocator.cpp ****         newUsed = curr;
 164              		.loc 1 54 9 is_stmt 1
 165              	.LVL14:
  55:src/MemoryAllocator.cpp ****         curr2->next = newUsed;
 166              		.loc 1 55 9
 167              		.loc 1 55 21 is_stmt 0
 168 0100 23B4A600 		sd	a0,8(a3)
  56:src/MemoryAllocator.cpp ****         newUsed->size = actualSize;
 169              		.loc 1 56 9 is_stmt 1
 170              		.loc 1 56 23 is_stmt 0
 171 0104 2330E500 		sd	a4,0(a0)
  57:src/MemoryAllocator.cpp ****         newUsed->next = nullptr;
 172              		.loc 1 57 9 is_stmt 1
 173              		.loc 1 57 23 is_stmt 0
 174 0108 23340500 		sd	zero,8(a0)
 175              	.LVL15:
 176              	.L12:
  58:src/MemoryAllocator.cpp ****     }
  59:src/MemoryAllocator.cpp **** 
  60:src/MemoryAllocator.cpp ****     return (void*)((size_t)newUsed + sizeof(MemMeta));
 177              		.loc 1 60 5 is_stmt 1
 178              		.loc 1 60 36 is_stmt 0
 179 010c 13050501 		addi	a0,a0,16
 180              	.LVL16:
 181              	.L1:
  61:src/MemoryAllocator.cpp **** }
 182              		.loc 1 61 1
 183 0110 03348100 		ld	s0,8(sp)
 184              		.cfi_remember_state
 185              		.cfi_restore 8
 186              		.cfi_def_cfa 2, 16
 187 0114 13010101 		addi	sp,sp,16
 188              		.cfi_def_cfa_offset 0
 189 0118 67800000 		jr	ra
 190              	.LVL17:
 191              	.L9:
 192              		.cfi_restore_state
  41:src/MemoryAllocator.cpp ****     newFree->size = curr->size - actualSize - sizeof(MemMeta);
 193              		.loc 1 41 10 is_stmt 1
  41:src/MemoryAllocator.cpp ****     newFree->size = curr->size - actualSize - sizeof(MemMeta);
 194              		.loc 1 41 20 is_stmt 0
 195 011c 97070000 		sd	a6,.LANCHOR0,a5
 195      23B00701 
 196 0124 6FF0DFFA 		j	.L10
 197              	.L17:
  46:src/MemoryAllocator.cpp ****         firstUsed->size = actualSize;
 198              		.loc 1 46 9 is_stmt 1
  46:src/MemoryAllocator.cpp ****         firstUsed->size = actualSize;
 199              		.loc 1 46 19 is_stmt 0
 200 0128 97070000 		lla	a5,.LANCHOR0
 200      93870700 
GAS LISTING /tmp/ccnkn6oc.s 			page 6


 201 0130 23B4A700 		sd	a0,8(a5)
  47:src/MemoryAllocator.cpp ****         firstUsed->next = nullptr;
 202              		.loc 1 47 9 is_stmt 1
  47:src/MemoryAllocator.cpp ****         firstUsed->next = nullptr;
 203              		.loc 1 47 25 is_stmt 0
 204 0134 2330E500 		sd	a4,0(a0)
  48:src/MemoryAllocator.cpp ****         newUsed = firstUsed;
 205              		.loc 1 48 9 is_stmt 1
  48:src/MemoryAllocator.cpp ****         newUsed = firstUsed;
 206              		.loc 1 48 20 is_stmt 0
 207 0138 03B58700 		ld	a0,8(a5)
 208              	.LVL18:
  48:src/MemoryAllocator.cpp ****         newUsed = firstUsed;
 209              		.loc 1 48 25
 210 013c 23340500 		sd	zero,8(a0)
  49:src/MemoryAllocator.cpp ****     }
 211              		.loc 1 49 9 is_stmt 1
 212              	.LVL19:
 213 0140 6FF0DFFC 		j	.L12
 214              		.cfi_endproc
 215              	.LFE0:
 217              		.align	2
 218              		.globl	_ZN15MemoryAllocator8mem_freeEPv
 220              	_ZN15MemoryAllocator8mem_freeEPv:
 221              	.LFB1:
  62:src/MemoryAllocator.cpp **** 
  63:src/MemoryAllocator.cpp **** int MemoryAllocator::mem_free (void* ptr) {
 222              		.loc 1 63 43
 223              		.cfi_startproc
 224              	.LVL20:
 225 0144 130101FF 		addi	sp,sp,-16
 226              		.cfi_def_cfa_offset 16
 227 0148 23348100 		sd	s0,8(sp)
 228              		.cfi_offset 8, -8
 229 014c 13040101 		addi	s0,sp,16
 230              		.cfi_def_cfa 8, 0
  64:src/MemoryAllocator.cpp ****     MemMeta* curr;
 231              		.loc 1 64 5
  65:src/MemoryAllocator.cpp ****     void* tmp;
 232              		.loc 1 65 5
  66:src/MemoryAllocator.cpp ****     MemMeta* newFree;
 233              		.loc 1 66 5
  67:src/MemoryAllocator.cpp **** 
  68:src/MemoryAllocator.cpp ****     //rastuci poredak
  69:src/MemoryAllocator.cpp **** 
  70:src/MemoryAllocator.cpp ****     if ((void*)((size_t)ptr - sizeof(MemMeta)) == firstUsed) {
 234              		.loc 1 70 5
 235              		.loc 1 70 29 is_stmt 0
 236 0150 130505FF 		addi	a0,a0,-16
 237              	.LVL21:
 238              		.loc 1 70 48
 239 0154 13070500 		mv	a4,a0
 240              		.loc 1 70 51
 241 0158 97070000 		ld	a5,.LANCHOR0+8
 241      83B70700 
 242              		.loc 1 70 5
 243 0160 630EF506 		beq	a0,a5,.L31
GAS LISTING /tmp/ccnkn6oc.s 			page 7


 244              	.L19:
 245              	.LVL22:
  71:src/MemoryAllocator.cpp ****         firstUsed = (MemMeta*)firstUsed->next;
  72:src/MemoryAllocator.cpp ****     }
  73:src/MemoryAllocator.cpp ****     else {
  74:src/MemoryAllocator.cpp ****         for (curr = firstUsed; curr->next != (void*)((size_t)ptr - sizeof(MemMeta)) && curr->next !
 246              		.loc 1 74 85 is_stmt 1 discriminator 4
 247 0164 93860700 		mv	a3,a5
 248              		.loc 1 74 38 is_stmt 0 discriminator 4
 249 0168 83B78700 		ld	a5,8(a5)
 250              	.LVL23:
 251              		.loc 1 74 85 discriminator 4
 252 016c 6304F700 		beq	a4,a5,.L21
 253              		.loc 1 74 85 discriminator 2
 254 0170 E39A07FE 		bnez	a5,.L19
 255              	.L21:
  75:src/MemoryAllocator.cpp ****         if (curr->next == nullptr) return -1;
 256              		.loc 1 75 9 is_stmt 1
 257 0174 638A0708 		beqz	a5,.L28
  76:src/MemoryAllocator.cpp ****         curr->next = ((MemMeta*)((size_t)ptr - sizeof(MemMeta)))->next;
 258              		.loc 1 76 9
 259              		.loc 1 76 67 is_stmt 0
 260 0178 83378500 		ld	a5,8(a0)
 261              		.loc 1 76 20
 262 017c 23B4F600 		sd	a5,8(a3)
 263              	.LVL24:
 264              	.L20:
  77:src/MemoryAllocator.cpp ****     } // vrsi prelancavanje USED liste
  78:src/MemoryAllocator.cpp **** 
  79:src/MemoryAllocator.cpp ****     newFree = (MemMeta*)((size_t)ptr - sizeof(MemMeta));
 265              		.loc 1 79 5 is_stmt 1
  80:src/MemoryAllocator.cpp **** 
  81:src/MemoryAllocator.cpp ****     if ((MemMeta*)((size_t)ptr - sizeof(MemMeta)) < firstFree) {
 266              		.loc 1 81 5
 267              		.loc 1 81 51 is_stmt 0
 268 0180 97070000 		ld	a5,.LANCHOR0
 268      83B70700 
 269              		.loc 1 81 5
 270 0188 6372F706 		bgeu	a4,a5,.L23
  82:src/MemoryAllocator.cpp ****         newFree->next = firstFree;
 271              		.loc 1 82 9 is_stmt 1
 272              		.loc 1 82 23 is_stmt 0
 273 018c 2334F500 		sd	a5,8(a0)
  83:src/MemoryAllocator.cpp ****         firstFree = newFree;
 274              		.loc 1 83 9 is_stmt 1
 275              		.loc 1 83 19 is_stmt 0
 276 0190 97070000 		sd	a0,.LANCHOR0,a5
 276      23B0A700 
 277              	.L24:
  84:src/MemoryAllocator.cpp ****     }
  85:src/MemoryAllocator.cpp **** 
  86:src/MemoryAllocator.cpp ****     else {
  87:src/MemoryAllocator.cpp ****         for (curr = firstFree; (size_t)curr->next < ((size_t)ptr - sizeof(MemMeta)) && curr->next !
  88:src/MemoryAllocator.cpp ****         tmp = curr->next;
  89:src/MemoryAllocator.cpp ****         curr->next = newFree;
  90:src/MemoryAllocator.cpp ****         newFree->next = tmp;
  91:src/MemoryAllocator.cpp **** 
GAS LISTING /tmp/ccnkn6oc.s 			page 8


  92:src/MemoryAllocator.cpp ****     }
  93:src/MemoryAllocator.cpp **** 
  94:src/MemoryAllocator.cpp ****     for (curr = firstFree; curr->next != nullptr; ){
 278              		.loc 1 94 5 is_stmt 1
 279              		.loc 1 94 15 is_stmt 0
 280 0198 97070000 		ld	a5,.LANCHOR0
 280      83B70700 
 281              	.LVL25:
 282              	.L26:
 283              		.loc 1 94 39 is_stmt 1 discriminator 1
 284 01a0 93860700 		mv	a3,a5
 285              		.loc 1 94 34 is_stmt 0 discriminator 1
 286 01a4 83B78700 		ld	a5,8(a5)
 287              	.LVL26:
 288              		.loc 1 94 39 discriminator 1
 289 01a8 63840706 		beqz	a5,.L29
  95:src/MemoryAllocator.cpp ****         if ((size_t)curr + curr->size + sizeof(MemMeta) == (size_t)curr->next){
 290              		.loc 1 95 9 is_stmt 1
 291              		.loc 1 95 34 is_stmt 0
 292 01ac 03B60600 		ld	a2,0(a3)
 293              		.loc 1 95 26
 294 01b0 3387C600 		add	a4,a3,a2
 295              		.loc 1 95 39
 296 01b4 13070701 		addi	a4,a4,16
 297              		.loc 1 95 9
 298 01b8 E314F7FE 		bne	a4,a5,.L26
  96:src/MemoryAllocator.cpp ****             curr->size = curr->size + ((MemMeta*)curr->next)->size + sizeof(MemMeta);
 299              		.loc 1 96 13 is_stmt 1
 300              		.loc 1 96 63 is_stmt 0
 301 01bc 03B70700 		ld	a4,0(a5)
 302              		.loc 1 96 37
 303 01c0 3306E600 		add	a2,a2,a4
 304              		.loc 1 96 68
 305 01c4 13060601 		addi	a2,a2,16
 306              		.loc 1 96 24
 307 01c8 23B0C600 		sd	a2,0(a3)
  97:src/MemoryAllocator.cpp ****             curr->next = ((MemMeta*)curr->next)->next;
 308              		.loc 1 97 13 is_stmt 1
 309              		.loc 1 97 50 is_stmt 0
 310 01cc 83B78700 		ld	a5,8(a5)
 311              		.loc 1 97 24
 312 01d0 23B4F600 		sd	a5,8(a3)
 313 01d4 93870600 		mv	a5,a3
 314 01d8 6FF09FFC 		j	.L26
 315              	.LVL27:
 316              	.L31:
  71:src/MemoryAllocator.cpp ****     }
 317              		.loc 1 71 9 is_stmt 1
  71:src/MemoryAllocator.cpp ****     }
 318              		.loc 1 71 42 is_stmt 0
 319 01dc 83B78700 		ld	a5,8(a5)
  71:src/MemoryAllocator.cpp ****     }
 320              		.loc 1 71 19
 321 01e0 97060000 		sd	a5,.LANCHOR0+8,a3
 321      23B0F600 
 322 01e8 6FF09FF9 		j	.L20
 323              	.LVL28:
GAS LISTING /tmp/ccnkn6oc.s 			page 9


 324              	.L23:
  87:src/MemoryAllocator.cpp ****         tmp = curr->next;
 325              		.loc 1 87 85 is_stmt 1 discriminator 4
 326 01ec 13870700 		mv	a4,a5
  87:src/MemoryAllocator.cpp ****         tmp = curr->next;
 327              		.loc 1 87 46 is_stmt 0 discriminator 4
 328 01f0 83B78700 		ld	a5,8(a5)
 329              	.LVL29:
  87:src/MemoryAllocator.cpp ****         tmp = curr->next;
 330              		.loc 1 87 85 discriminator 4
 331 01f4 63F4A700 		bleu	a0,a5,.L25
  87:src/MemoryAllocator.cpp ****         tmp = curr->next;
 332              		.loc 1 87 85 discriminator 2
 333 01f8 E39A07FE 		bnez	a5,.L23
 334              	.L25:
  88:src/MemoryAllocator.cpp ****         curr->next = newFree;
 335              		.loc 1 88 9 is_stmt 1
 336              	.LVL30:
  89:src/MemoryAllocator.cpp ****         newFree->next = tmp;
 337              		.loc 1 89 9
  89:src/MemoryAllocator.cpp ****         newFree->next = tmp;
 338              		.loc 1 89 20 is_stmt 0
 339 01fc 2334A700 		sd	a0,8(a4)
  90:src/MemoryAllocator.cpp **** 
 340              		.loc 1 90 9 is_stmt 1
  90:src/MemoryAllocator.cpp **** 
 341              		.loc 1 90 23 is_stmt 0
 342 0200 2334F500 		sd	a5,8(a0)
 343 0204 6FF05FF9 		j	.L24
 344              	.LVL31:
 345              	.L28:
  75:src/MemoryAllocator.cpp ****         curr->next = ((MemMeta*)((size_t)ptr - sizeof(MemMeta)))->next;
 346              		.loc 1 75 44
 347 0208 1305F0FF 		li	a0,-1
 348              	.LVL32:
 349 020c 6F008000 		j	.L22
 350              	.LVL33:
 351              	.L29:
  98:src/MemoryAllocator.cpp ****         }
  99:src/MemoryAllocator.cpp ****         else {
 100:src/MemoryAllocator.cpp ****             curr = (MemMeta*)curr->next;
 101:src/MemoryAllocator.cpp ****         }
 102:src/MemoryAllocator.cpp ****     }
 103:src/MemoryAllocator.cpp **** 
 104:src/MemoryAllocator.cpp ****     return 0;
 352              		.loc 1 104 12
 353 0210 13050000 		li	a0,0
 354              	.LVL34:
 355              	.L22:
 105:src/MemoryAllocator.cpp **** }
 356              		.loc 1 105 1
 357 0214 03348100 		ld	s0,8(sp)
 358              		.cfi_restore 8
 359              		.cfi_def_cfa 2, 16
 360 0218 13010101 		addi	sp,sp,16
 361              		.cfi_def_cfa_offset 0
 362 021c 67800000 		jr	ra
GAS LISTING /tmp/ccnkn6oc.s 			page 10


 363              		.cfi_endproc
 364              	.LFE1:
 366              		.globl	_ZN15MemoryAllocator9firstUsedE
 367              		.globl	_ZN15MemoryAllocator9firstFreeE
 368              		.bss
 369              		.align	3
 370              		.set	.LANCHOR0,. + 0
 373              	_ZN15MemoryAllocator9firstFreeE:
 374 0000 00000000 		.zero	8
 374      00000000 
 377              	_ZN15MemoryAllocator9firstUsedE:
 378 0008 00000000 		.zero	8
 378      00000000 
 379              		.text
 380              	.Letext0:
 381              		.file 2 "src/../h/../lib/hw.h"
 382              		.file 3 "src/../h/MemoryAllocator.h"
GAS LISTING /tmp/ccnkn6oc.s 			page 11

