GAS LISTING /tmp/cc45s6jW.s 			page 1


   1              		.file	"scheduler.cpp"
   2              		.option pic
   3              		.option norelax
   4              		.text
   5              	.Ltext0:
   6              		.align	2
   8              	_Z41__static_initialization_and_destruction_0ii:
   9              	.LFB16:
  10              		.file 1 "src/scheduler.cpp"
   1:src/scheduler.cpp **** //
   2:src/scheduler.cpp **** // Created by os on 8/22/24.
   3:src/scheduler.cpp **** //
   4:src/scheduler.cpp **** 
   5:src/scheduler.cpp **** #include "../h/scheduler.hpp"
   6:src/scheduler.cpp **** #include "../h/tcb.hpp"
   7:src/scheduler.cpp **** 
   8:src/scheduler.cpp **** List Scheduler::queue;
   9:src/scheduler.cpp **** 
  10:src/scheduler.cpp **** TCB* Scheduler::get(){
  11:src/scheduler.cpp **** //    TCB* curr = 0;
  12:src/scheduler.cpp **** //    while (!(queue.peekFront() -> getActive())) {
  13:src/scheduler.cpp **** //        curr = queue.popFront();
  14:src/scheduler.cpp **** //        queue.addRear(curr);
  15:src/scheduler.cpp **** //    }
  16:src/scheduler.cpp ****     return queue.popFront();
  17:src/scheduler.cpp **** }
  18:src/scheduler.cpp **** 
  19:src/scheduler.cpp **** void Scheduler::put(TCB* tcb){
  20:src/scheduler.cpp ****     queue.addRear(tcb);
  21:src/scheduler.cpp **** }...
  11              		.loc 1 21 1
  12              		.cfi_startproc
  13              	.LVL0:
  14 0000 130101FF 		addi	sp,sp,-16
  15              		.cfi_def_cfa_offset 16
  16 0004 23348100 		sd	s0,8(sp)
  17              		.cfi_offset 8, -8
  18 0008 13040101 		addi	s0,sp,16
  19              		.cfi_def_cfa 8, 0
  20              		.loc 1 21 1 is_stmt 0
  21 000c 93071000 		li	a5,1
  22 0010 6308F500 		beq	a0,a5,.L4
  23              	.L1:
  24 0014 03348100 		ld	s0,8(sp)
  25              		.cfi_remember_state
  26              		.cfi_restore 8
  27              		.cfi_def_cfa 2, 16
  28 0018 13010101 		addi	sp,sp,16
  29              		.cfi_def_cfa_offset 0
  30 001c 67800000 		jr	ra
  31              	.L4:
  32              		.cfi_restore_state
  33              		.loc 1 21 1 discriminator 1
  34 0020 B7070100 		li	a5,65536
  35 0024 9387F7FF 		addi	a5,a5,-1
  36 0028 E396F5FE 		bne	a1,a5,.L1
  37              	.LVL1:
GAS LISTING /tmp/cc45s6jW.s 			page 2


  38              	.LBB7:
  39              	.LBB8:
  40              	.LBB9:
  41              		.file 2 "src/../h/list.hpp"
   1:src/../h/list.hpp **** //
   2:src/../h/list.hpp **** // Created by os on 8/21/24.
   3:src/../h/list.hpp **** //
   4:src/../h/list.hpp **** 
   5:src/../h/list.hpp **** #ifndef PROJECT_BASE_LIST_HPP
   6:src/../h/list.hpp **** #define PROJECT_BASE_LIST_HPP
   7:src/../h/list.hpp **** 
   8:src/../h/list.hpp **** #include "../h/syscall_c.hpp"
   9:src/../h/list.hpp **** 
  10:src/../h/list.hpp **** class TCB;
  11:src/../h/list.hpp **** 
  12:src/../h/list.hpp **** class List {
  13:src/../h/list.hpp **** public:
  14:src/../h/list.hpp **** 
  15:src/../h/list.hpp ****     typedef struct elem{
  16:src/../h/list.hpp ****         TCB* data;
  17:src/../h/list.hpp ****         elem* next;
  18:src/../h/list.hpp ****     }Elem;
  19:src/../h/list.hpp **** 
  20:src/../h/list.hpp ****     Elem* head;
  21:src/../h/list.hpp **** 
  22:src/../h/list.hpp ****     List () : head(0) {};
  42              		.loc 2 22 21
  43 002c 97070000 		sd	zero,.LANCHOR0,a5
  43      23B00700 
  44              	.LVL2:
  45              	.LBE9:
  46              	.LBE8:
  47              	.LBE7:
  48              		.loc 1 21 1
  49 0034 6FF01FFE 		j	.L1
  50              		.cfi_endproc
  51              	.LFE16:
  53              		.align	2
  54              		.globl	_ZN9Scheduler3getEv
  56              	_ZN9Scheduler3getEv:
  57              	.LFB14:
  10:src/scheduler.cpp **** TCB* Scheduler::get(){
  58              		.loc 1 10 22 is_stmt 1
  59              		.cfi_startproc
  60 0038 130101FE 		addi	sp,sp,-32
  61              		.cfi_def_cfa_offset 32
  62 003c 233C1100 		sd	ra,24(sp)
  63 0040 23388100 		sd	s0,16(sp)
  64 0044 23349100 		sd	s1,8(sp)
  65              		.cfi_offset 1, -8
  66              		.cfi_offset 8, -16
  67              		.cfi_offset 9, -24
  68 0048 13040102 		addi	s0,sp,32
  69              		.cfi_def_cfa 8, 0
  16:src/scheduler.cpp ****     return queue.popFront();
  70              		.loc 1 16 5
  71              	.LVL3:
GAS LISTING /tmp/cc45s6jW.s 			page 3


  72              	.LBB10:
  73              	.LBB11:
  23:src/../h/list.hpp **** 
  24:src/../h/list.hpp ****     void addFront (TCB* data){
  25:src/../h/list.hpp ****         Elem* newElem = (Elem*)mem_alloc(sizeof(Elem));
  26:src/../h/list.hpp **** 
  27:src/../h/list.hpp ****         newElem->data = data;
  28:src/../h/list.hpp ****         newElem->next = head;
  29:src/../h/list.hpp ****         head = newElem;
  30:src/../h/list.hpp ****     }
  31:src/../h/list.hpp **** 
  32:src/../h/list.hpp ****     void addRear (TCB* data){
  33:src/../h/list.hpp ****         Elem* curr = 0;
  34:src/../h/list.hpp ****         Elem* newElem = (Elem*)mem_alloc(sizeof(Elem));
  35:src/../h/list.hpp **** 
  36:src/../h/list.hpp ****         newElem->data = data;
  37:src/../h/list.hpp ****         newElem->next = 0;
  38:src/../h/list.hpp ****         if (head) {
  39:src/../h/list.hpp ****             for (curr = head; curr->next != 0; curr = curr->next);
  40:src/../h/list.hpp ****             curr->next = newElem;
  41:src/../h/list.hpp ****         }
  42:src/../h/list.hpp ****         else head = newElem;
  43:src/../h/list.hpp ****     }
  44:src/../h/list.hpp **** 
  45:src/../h/list.hpp ****     TCB* popFront () {
  46:src/../h/list.hpp ****         if (head == 0) return 0;
  74              		.loc 2 46 9
  75              		.loc 2 46 13 is_stmt 0
  76 004c 17050000 		ld	a0,.LANCHOR0
  76      03350500 
  77              		.loc 2 46 9
  78 0054 630A0502 		beqz	a0,.L7
  47:src/../h/list.hpp ****         TCB* tmpTCB = head->data;
  79              		.loc 2 47 9 is_stmt 1
  80              		.loc 2 47 14 is_stmt 0
  81 0058 83340500 		ld	s1,0(a0)
  82              	.LVL4:
  48:src/../h/list.hpp ****         Elem* tmpElem = head;
  83              		.loc 2 48 9 is_stmt 1
  49:src/../h/list.hpp **** 
  50:src/../h/list.hpp ****         head = head->next;
  84              		.loc 2 50 9
  85              		.loc 2 50 22 is_stmt 0
  86 005c 83378500 		ld	a5,8(a0)
  87              		.loc 2 50 14
  88 0060 17070000 		sd	a5,.LANCHOR0,a4
  88      2330F700 
  51:src/../h/list.hpp ****         if(mem_free(tmpElem)) {};
  89              		.loc 2 51 9 is_stmt 1
  90              		.loc 2 51 20 is_stmt 0
  91 0068 97000000 		call	_Z8mem_freePv@plt
  91      E7800000 
  92              	.LVL5:
  93              		.loc 2 51 33 is_stmt 1
  52:src/../h/list.hpp ****         tmpElem = 0;
  94              		.loc 2 52 9
  53:src/../h/list.hpp ****         return tmpTCB;
GAS LISTING /tmp/cc45s6jW.s 			page 4


  95              		.loc 2 53 9
  96              	.L5:
  97              	.LBE11:
  98              	.LBE10:
  17:src/scheduler.cpp **** }
  99              		.loc 1 17 1 is_stmt 0
 100 0070 13850400 		mv	a0,s1
 101 0074 83308101 		ld	ra,24(sp)
 102              		.cfi_remember_state
 103              		.cfi_restore 1
 104 0078 03340101 		ld	s0,16(sp)
 105              		.cfi_restore 8
 106              		.cfi_def_cfa 2, 32
 107 007c 83348100 		ld	s1,8(sp)
 108              		.cfi_restore 9
 109 0080 13010102 		addi	sp,sp,32
 110              		.cfi_def_cfa_offset 0
 111 0084 67800000 		jr	ra
 112              	.LVL6:
 113              	.L7:
 114              		.cfi_restore_state
 115              	.LBB13:
 116              	.LBB12:
  46:src/../h/list.hpp ****         TCB* tmpTCB = head->data;
 117              		.loc 2 46 31
 118 0088 93040500 		mv	s1,a0
 119              	.LVL7:
 120              	.LBE12:
 121              	.LBE13:
  16:src/scheduler.cpp ****     return queue.popFront();
 122              		.loc 1 16 27
 123 008c 6FF05FFE 		j	.L5
 124              		.cfi_endproc
 125              	.LFE14:
 127              		.align	2
 128              		.globl	_ZN9Scheduler3putEP3TCB
 130              	_ZN9Scheduler3putEP3TCB:
 131              	.LFB15:
  19:src/scheduler.cpp **** void Scheduler::put(TCB* tcb){
 132              		.loc 1 19 30 is_stmt 1
 133              		.cfi_startproc
 134              	.LVL8:
 135 0090 130101FE 		addi	sp,sp,-32
 136              		.cfi_def_cfa_offset 32
 137 0094 233C1100 		sd	ra,24(sp)
 138 0098 23388100 		sd	s0,16(sp)
 139 009c 23349100 		sd	s1,8(sp)
 140              		.cfi_offset 1, -8
 141              		.cfi_offset 8, -16
 142              		.cfi_offset 9, -24
 143 00a0 13040102 		addi	s0,sp,32
 144              		.cfi_def_cfa 8, 0
 145 00a4 93040500 		mv	s1,a0
  20:src/scheduler.cpp ****     queue.addRear(tcb);
 146              		.loc 1 20 5
 147              	.LVL9:
 148              	.LBB16:
GAS LISTING /tmp/cc45s6jW.s 			page 5


 149              	.LBB17:
  33:src/../h/list.hpp ****         Elem* newElem = (Elem*)mem_alloc(sizeof(Elem));
 150              		.loc 2 33 9
  34:src/../h/list.hpp **** 
 151              		.loc 2 34 9
  34:src/../h/list.hpp **** 
 152              		.loc 2 34 41 is_stmt 0
 153 00a8 13050001 		li	a0,16
 154              	.LVL10:
 155 00ac 97000000 		call	_Z9mem_allocm@plt
 155      E7800000 
 156              	.LVL11:
  36:src/../h/list.hpp ****         newElem->next = 0;
 157              		.loc 2 36 9 is_stmt 1
  36:src/../h/list.hpp ****         newElem->next = 0;
 158              		.loc 2 36 23 is_stmt 0
 159 00b4 23309500 		sd	s1,0(a0)
  37:src/../h/list.hpp ****         if (head) {
 160              		.loc 2 37 9 is_stmt 1
  37:src/../h/list.hpp ****         if (head) {
 161              		.loc 2 37 23 is_stmt 0
 162 00b8 23340500 		sd	zero,8(a0)
  38:src/../h/list.hpp ****             for (curr = head; curr->next != 0; curr = curr->next);
 163              		.loc 2 38 9 is_stmt 1
  38:src/../h/list.hpp ****             for (curr = head; curr->next != 0; curr = curr->next);
 164              		.loc 2 38 13 is_stmt 0
 165 00bc 97070000 		ld	a5,.LANCHOR0
 165      83B70700 
  38:src/../h/list.hpp ****             for (curr = head; curr->next != 0; curr = curr->next);
 166              		.loc 2 38 9
 167 00c4 63840702 		beqz	a5,.L10
 168              	.LVL12:
 169              	.L11:
  39:src/../h/list.hpp ****             curr->next = newElem;
 170              		.loc 2 39 42 is_stmt 1
 171 00c8 13870700 		mv	a4,a5
  39:src/../h/list.hpp ****             curr->next = newElem;
 172              		.loc 2 39 37 is_stmt 0
 173 00cc 83B78700 		ld	a5,8(a5)
 174              	.LVL13:
  39:src/../h/list.hpp ****             curr->next = newElem;
 175              		.loc 2 39 42
 176 00d0 E39C07FE 		bnez	a5,.L11
  40:src/../h/list.hpp ****         }
 177              		.loc 2 40 13 is_stmt 1
  40:src/../h/list.hpp ****         }
 178              		.loc 2 40 24 is_stmt 0
 179 00d4 2334A700 		sd	a0,8(a4)
 180              	.LVL14:
 181              	.L9:
 182              	.LBE17:
 183              	.LBE16:
 184              		.loc 1 21 1
 185 00d8 83308101 		ld	ra,24(sp)
 186              		.cfi_remember_state
 187              		.cfi_restore 1
 188 00dc 03340101 		ld	s0,16(sp)
GAS LISTING /tmp/cc45s6jW.s 			page 6


 189              		.cfi_restore 8
 190              		.cfi_def_cfa 2, 32
 191 00e0 83348100 		ld	s1,8(sp)
 192              		.cfi_restore 9
 193              	.LVL15:
 194 00e4 13010102 		addi	sp,sp,32
 195              		.cfi_def_cfa_offset 0
 196 00e8 67800000 		jr	ra
 197              	.LVL16:
 198              	.L10:
 199              		.cfi_restore_state
 200              	.LBB19:
 201              	.LBB18:
  42:src/../h/list.hpp ****     }
 202              		.loc 2 42 14 is_stmt 1
  42:src/../h/list.hpp ****     }
 203              		.loc 2 42 19 is_stmt 0
 204 00ec 97070000 		sd	a0,.LANCHOR0,a5
 204      23B0A700 
 205              	.LVL17:
 206              	.LBE18:
 207              	.LBE19:
 208              		.loc 1 21 1
 209 00f4 6FF05FFE 		j	.L9
 210              		.cfi_endproc
 211              	.LFE15:
 213              		.align	2
 215              	_GLOBAL__sub_I__ZN9Scheduler5queueE:
 216              	.LFB17:
 217              		.loc 1 21 1 is_stmt 1
 218              		.cfi_startproc
 219 00f8 130101FF 		addi	sp,sp,-16
 220              		.cfi_def_cfa_offset 16
 221 00fc 23341100 		sd	ra,8(sp)
 222 0100 23308100 		sd	s0,0(sp)
 223              		.cfi_offset 1, -8
 224              		.cfi_offset 8, -16
 225 0104 13040101 		addi	s0,sp,16
 226              		.cfi_def_cfa 8, 0
 227              		.loc 1 21 1 is_stmt 0
 228 0108 B7050100 		li	a1,65536
 229 010c 9385F5FF 		addi	a1,a1,-1
 230 0110 13051000 		li	a0,1
 231 0114 97000000 		call	_Z41__static_initialization_and_destruction_0ii
 231      E7800000 
 232              	.LVL18:
 233 011c 83308100 		ld	ra,8(sp)
 234              		.cfi_restore 1
 235 0120 03340100 		ld	s0,0(sp)
 236              		.cfi_restore 8
 237              		.cfi_def_cfa 2, 16
 238 0124 13010101 		addi	sp,sp,16
 239              		.cfi_def_cfa_offset 0
 240 0128 67800000 		jr	ra
 241              		.cfi_endproc
 242              	.LFE17:
 244              		.section	.init_array,"aw"
GAS LISTING /tmp/cc45s6jW.s 			page 7


 245              		.align	3
 246 0000 00000000 		.dword	_GLOBAL__sub_I__ZN9Scheduler5queueE
 246      00000000 
 247              		.globl	_ZN9Scheduler5queueE
 248              		.bss
 249              		.align	3
 250              		.set	.LANCHOR0,. + 0
 253              	_ZN9Scheduler5queueE:
 254 0000 00000000 		.zero	8
 254      00000000 
 255              		.text
 256              	.Letext0:
 257              		.file 3 "src/../h/../h/../lib/hw.h"
 258              		.file 4 "src/../h/tcb.hpp"
 259              		.file 5 "src/../h/scheduler.hpp"
 260              		.file 6 "src/../h/../h/syscall_c.hpp"
GAS LISTING /tmp/cc45s6jW.s 			page 8


DEFINED SYMBOLS
                            *ABS*:0000000000000000 scheduler.cpp
     /tmp/cc45s6jW.s:8      .text:0000000000000000 _Z41__static_initialization_and_destruction_0ii
     /tmp/cc45s6jW.s:12     .text:0000000000000000 .L0 
     /tmp/cc45s6jW.s:14     .text:0000000000000000 .L0 
     /tmp/cc45s6jW.s:15     .text:0000000000000004 .L0 
     /tmp/cc45s6jW.s:17     .text:0000000000000008 .L0 
     /tmp/cc45s6jW.s:19     .text:000000000000000c .L0 
     /tmp/cc45s6jW.s:21     .text:000000000000000c .L0 
     /tmp/cc45s6jW.s:25     .text:0000000000000018 .L0 
     /tmp/cc45s6jW.s:26     .text:0000000000000018 .L0 
     /tmp/cc45s6jW.s:27     .text:0000000000000018 .L0 
     /tmp/cc45s6jW.s:29     .text:000000000000001c .L0 
     /tmp/cc45s6jW.s:32     .text:0000000000000020 .L0 
     /tmp/cc45s6jW.s:34     .text:0000000000000020 .L0 
     /tmp/cc45s6jW.s:43     .text:000000000000002c .L0 
     /tmp/cc45s6jW.s:49     .text:0000000000000034 .L0 
     /tmp/cc45s6jW.s:50     .text:0000000000000038 .L0 
     /tmp/cc45s6jW.s:56     .text:0000000000000038 _ZN9Scheduler3getEv
     /tmp/cc45s6jW.s:59     .text:0000000000000038 .L0 
     /tmp/cc45s6jW.s:60     .text:0000000000000038 .L0 
     /tmp/cc45s6jW.s:61     .text:000000000000003c .L0 
     /tmp/cc45s6jW.s:65     .text:0000000000000048 .L0 
     /tmp/cc45s6jW.s:66     .text:0000000000000048 .L0 
     /tmp/cc45s6jW.s:67     .text:0000000000000048 .L0 
     /tmp/cc45s6jW.s:69     .text:000000000000004c .L0 
     /tmp/cc45s6jW.s:74     .text:000000000000004c .L0 
     /tmp/cc45s6jW.s:75     .text:000000000000004c .L0 
     /tmp/cc45s6jW.s:76     .text:000000000000004c .L0 
     /tmp/cc45s6jW.s:78     .text:0000000000000054 .L0 
     /tmp/cc45s6jW.s:80     .text:0000000000000058 .L0 
     /tmp/cc45s6jW.s:81     .text:0000000000000058 .L0 
     /tmp/cc45s6jW.s:84     .text:000000000000005c .L0 
     /tmp/cc45s6jW.s:85     .text:000000000000005c .L0 
     /tmp/cc45s6jW.s:86     .text:000000000000005c .L0 
     /tmp/cc45s6jW.s:88     .text:0000000000000060 .L0 
     /tmp/cc45s6jW.s:90     .text:0000000000000068 .L0 
     /tmp/cc45s6jW.s:91     .text:0000000000000068 .L0 
     /tmp/cc45s6jW.s:94     .text:0000000000000070 .L0 
     /tmp/cc45s6jW.s:95     .text:0000000000000070 .L0 
     /tmp/cc45s6jW.s:99     .text:0000000000000070 .L0 
     /tmp/cc45s6jW.s:100    .text:0000000000000070 .L0 
     /tmp/cc45s6jW.s:102    .text:0000000000000078 .L0 
     /tmp/cc45s6jW.s:103    .text:0000000000000078 .L0 
     /tmp/cc45s6jW.s:105    .text:000000000000007c .L0 
     /tmp/cc45s6jW.s:106    .text:000000000000007c .L0 
     /tmp/cc45s6jW.s:108    .text:0000000000000080 .L0 
     /tmp/cc45s6jW.s:110    .text:0000000000000084 .L0 
     /tmp/cc45s6jW.s:114    .text:0000000000000088 .L0 
     /tmp/cc45s6jW.s:118    .text:0000000000000088 .L0 
     /tmp/cc45s6jW.s:123    .text:000000000000008c .L0 
     /tmp/cc45s6jW.s:124    .text:0000000000000090 .L0 
     /tmp/cc45s6jW.s:130    .text:0000000000000090 _ZN9Scheduler3putEP3TCB
     /tmp/cc45s6jW.s:133    .text:0000000000000090 .L0 
     /tmp/cc45s6jW.s:135    .text:0000000000000090 .L0 
     /tmp/cc45s6jW.s:136    .text:0000000000000094 .L0 
     /tmp/cc45s6jW.s:140    .text:00000000000000a0 .L0 
GAS LISTING /tmp/cc45s6jW.s 			page 9


     /tmp/cc45s6jW.s:141    .text:00000000000000a0 .L0 
     /tmp/cc45s6jW.s:142    .text:00000000000000a0 .L0 
     /tmp/cc45s6jW.s:144    .text:00000000000000a4 .L0 
     /tmp/cc45s6jW.s:150    .text:00000000000000a8 .L0 
     /tmp/cc45s6jW.s:151    .text:00000000000000a8 .L0 
     /tmp/cc45s6jW.s:152    .text:00000000000000a8 .L0 
     /tmp/cc45s6jW.s:153    .text:00000000000000a8 .L0 
     /tmp/cc45s6jW.s:158    .text:00000000000000b4 .L0 
     /tmp/cc45s6jW.s:159    .text:00000000000000b4 .L0 
     /tmp/cc45s6jW.s:161    .text:00000000000000b8 .L0 
     /tmp/cc45s6jW.s:162    .text:00000000000000b8 .L0 
     /tmp/cc45s6jW.s:164    .text:00000000000000bc .L0 
     /tmp/cc45s6jW.s:165    .text:00000000000000bc .L0 
     /tmp/cc45s6jW.s:167    .text:00000000000000c4 .L0 
     /tmp/cc45s6jW.s:171    .text:00000000000000c8 .L0 
     /tmp/cc45s6jW.s:173    .text:00000000000000cc .L0 
     /tmp/cc45s6jW.s:176    .text:00000000000000d0 .L0 
     /tmp/cc45s6jW.s:178    .text:00000000000000d4 .L0 
     /tmp/cc45s6jW.s:179    .text:00000000000000d4 .L0 
     /tmp/cc45s6jW.s:185    .text:00000000000000d8 .L0 
     /tmp/cc45s6jW.s:186    .text:00000000000000dc .L0 
     /tmp/cc45s6jW.s:187    .text:00000000000000dc .L0 
     /tmp/cc45s6jW.s:189    .text:00000000000000e0 .L0 
     /tmp/cc45s6jW.s:190    .text:00000000000000e0 .L0 
     /tmp/cc45s6jW.s:192    .text:00000000000000e4 .L0 
     /tmp/cc45s6jW.s:195    .text:00000000000000e8 .L0 
     /tmp/cc45s6jW.s:199    .text:00000000000000ec .L0 
     /tmp/cc45s6jW.s:203    .text:00000000000000ec .L0 
     /tmp/cc45s6jW.s:204    .text:00000000000000ec .L0 
     /tmp/cc45s6jW.s:209    .text:00000000000000f4 .L0 
     /tmp/cc45s6jW.s:210    .text:00000000000000f8 .L0 
     /tmp/cc45s6jW.s:215    .text:00000000000000f8 _GLOBAL__sub_I__ZN9Scheduler5queueE
     /tmp/cc45s6jW.s:218    .text:00000000000000f8 .L0 
     /tmp/cc45s6jW.s:219    .text:00000000000000f8 .L0 
     /tmp/cc45s6jW.s:220    .text:00000000000000fc .L0 
     /tmp/cc45s6jW.s:223    .text:0000000000000104 .L0 
     /tmp/cc45s6jW.s:224    .text:0000000000000104 .L0 
     /tmp/cc45s6jW.s:226    .text:0000000000000108 .L0 
     /tmp/cc45s6jW.s:228    .text:0000000000000108 .L0 
     /tmp/cc45s6jW.s:234    .text:0000000000000120 .L0 
     /tmp/cc45s6jW.s:236    .text:0000000000000124 .L0 
     /tmp/cc45s6jW.s:237    .text:0000000000000124 .L0 
     /tmp/cc45s6jW.s:239    .text:0000000000000128 .L0 
     /tmp/cc45s6jW.s:241    .text:000000000000012c .L0 
     /tmp/cc45s6jW.s:253    .bss:0000000000000000 _ZN9Scheduler5queueE
     /tmp/cc45s6jW.s:250    .bss:0000000000000000 .LANCHOR0
     /tmp/cc45s6jW.s:261    .text:000000000000012c .L0 
     /tmp/cc45s6jW.s:43     .text:000000000000002c .L0 
     /tmp/cc45s6jW.s:76     .text:000000000000004c .L0 
     /tmp/cc45s6jW.s:88     .text:0000000000000060 .L0 
     /tmp/cc45s6jW.s:165    .text:00000000000000bc .L0 
     /tmp/cc45s6jW.s:204    .text:00000000000000ec .L0 
     /tmp/cc45s6jW.s:31     .text:0000000000000020 .L4
     /tmp/cc45s6jW.s:23     .text:0000000000000014 .L1
     /tmp/cc45s6jW.s:113    .text:0000000000000088 .L7
     /tmp/cc45s6jW.s:96     .text:0000000000000070 .L5
     /tmp/cc45s6jW.s:198    .text:00000000000000ec .L10
GAS LISTING /tmp/cc45s6jW.s 			page 10


     /tmp/cc45s6jW.s:169    .text:00000000000000c8 .L11
     /tmp/cc45s6jW.s:181    .text:00000000000000d8 .L9
     /tmp/cc45s6jW.s:1011   .debug_abbrev:0000000000000000 .Ldebug_abbrev0
     /tmp/cc45s6jW.s:2131   .debug_str:00000000000003ea .LASF70
     /tmp/cc45s6jW.s:2149   .debug_str:000000000000053c .LASF71
     /tmp/cc45s6jW.s:2033   .debug_str:0000000000000102 .LASF72
     /tmp/cc45s6jW.s:5      .text:0000000000000000 .Ltext0
     /tmp/cc45s6jW.s:256    .text:000000000000012c .Letext0
     /tmp/cc45s6jW.s:1987   .debug_line:0000000000000000 .Ldebug_line0
     /tmp/cc45s6jW.s:2089   .debug_str:00000000000002d5 .LASF0
     /tmp/cc45s6jW.s:2095   .debug_str:00000000000002f3 .LASF1
     /tmp/cc45s6jW.s:2075   .debug_str:000000000000025a .LASF2
     /tmp/cc45s6jW.s:2051   .debug_str:00000000000001d3 .LASF4
     /tmp/cc45s6jW.s:2125   .debug_str:00000000000003ba .LASF3
     /tmp/cc45s6jW.s:1995   .debug_str:0000000000000022 .LASF5
     /tmp/cc45s6jW.s:2097   .debug_str:0000000000000306 .LASF6
     /tmp/cc45s6jW.s:2087   .debug_str:00000000000002c2 .LASF7
     /tmp/cc45s6jW.s:2139   .debug_str:00000000000004e9 .LASF8
     /tmp/cc45s6jW.s:2039   .debug_str:0000000000000152 .LASF9
     /tmp/cc45s6jW.s:2107   .debug_str:000000000000034b .LASF10
     /tmp/cc45s6jW.s:2135   .debug_str:00000000000004c2 .LASF11
     /tmp/cc45s6jW.s:1999   .debug_str:0000000000000034 .LASF12
     /tmp/cc45s6jW.s:1989   .debug_str:0000000000000000 .LASF13
     /tmp/cc45s6jW.s:2003   .debug_str:000000000000005c .LASF14
     /tmp/cc45s6jW.s:2121   .debug_str:000000000000039f .LASF15
     /tmp/cc45s6jW.s:2015   .debug_str:0000000000000095 .LASF16
     /tmp/cc45s6jW.s:2049   .debug_str:00000000000001ce .LASF19
     /tmp/cc45s6jW.s:2123   .debug_str:00000000000003b5 .LASF73
     /tmp/cc45s6jW.s:2119   .debug_str:000000000000039a .LASF17
     /tmp/cc45s6jW.s:2153   .debug_str:0000000000000559 .LASF18
     /tmp/cc45s6jW.s:2067   .debug_str:0000000000000229 .LASF39
     /tmp/cc45s6jW.s:2017   .debug_str:00000000000000ab .LASF53
     /tmp/cc45s6jW.s:2023   .debug_str:00000000000000cd .LASF21
     /tmp/cc45s6jW.s:2005   .debug_str:0000000000000068 .LASF20
     /tmp/cc45s6jW.s:2057   .debug_str:00000000000001e8 .LASF22
     /tmp/cc45s6jW.s:2061   .debug_str:000000000000020d .LASF23
     /tmp/cc45s6jW.s:2099   .debug_str:0000000000000319 .LASF24
     /tmp/cc45s6jW.s:2013   .debug_str:000000000000008c .LASF27
     /tmp/cc45s6jW.s:2129   .debug_str:00000000000003d6 .LASF29
     /tmp/cc45s6jW.s:2145   .debug_str:000000000000051d .LASF25
     /tmp/cc45s6jW.s:2085   .debug_str:00000000000002ad .LASF26
     /tmp/cc45s6jW.s:1993   .debug_str:000000000000001a .LASF74
     /tmp/cc45s6jW.s:2103   .debug_str:0000000000000335 .LASF28
     /tmp/cc45s6jW.s:2137   .debug_str:00000000000004d1 .LASF30
     /tmp/cc45s6jW.s:2077   .debug_str:0000000000000268 .LASF31
     /tmp/cc45s6jW.s:2045   .debug_str:000000000000018f .LASF32
     /tmp/cc45s6jW.s:1991   .debug_str:0000000000000010 .LASF33
     /tmp/cc45s6jW.s:2069   .debug_str:000000000000022e .LASF34
     /tmp/cc45s6jW.s:2071   .debug_str:0000000000000243 .LASF35
     /tmp/cc45s6jW.s:2133   .debug_str:00000000000004ae .LASF36
     /tmp/cc45s6jW.s:2059   .debug_str:0000000000000200 .LASF37
     /tmp/cc45s6jW.s:2081   .debug_str:0000000000000283 .LASF38
     /tmp/cc45s6jW.s:2117   .debug_str:0000000000000395 .LASF40
     /tmp/cc45s6jW.s:2027   .debug_str:00000000000000e2 .LASF75
     /tmp/cc45s6jW.s:2063   .debug_str:0000000000000215 .LASF41
     /tmp/cc45s6jW.s:2043   .debug_str:0000000000000176 .LASF43
     /tmp/cc45s6jW.s:2151   .debug_str:000000000000054e .LASF42
GAS LISTING /tmp/cc45s6jW.s 			page 11


     /tmp/cc45s6jW.s:2041   .debug_str:0000000000000160 .LASF44
     /tmp/cc45s6jW.s:2143   .debug_str:0000000000000507 .LASF76
     /tmp/cc45s6jW.s:2091   .debug_str:00000000000002e2 .LASF45
     /tmp/cc45s6jW.s:2029   .debug_str:00000000000000ea .LASF46
     /tmp/cc45s6jW.s:2055   .debug_str:00000000000001e3 .LASF47
     /tmp/cc45s6jW.s:2007   .debug_str:0000000000000071 .LASF48
     /tmp/cc45s6jW.s:2093   .debug_str:00000000000002eb .LASF49
     /tmp/cc45s6jW.s:2009   .debug_str:0000000000000077 .LASF50
     /tmp/cc45s6jW.s:2053   .debug_str:00000000000001da .LASF51
     /tmp/cc45s6jW.s:2141   .debug_str:00000000000004f9 .LASF77
     /tmp/cc45s6jW.s:2047   .debug_str:00000000000001a6 .LASF78
     /tmp/cc45s6jW.s:2105   .debug_str:0000000000000341 .LASF52
     /tmp/cc45s6jW.s:2019   .debug_str:00000000000000b0 .LASF79
     /tmp/cc45s6jW.s:2001   .debug_str:0000000000000044 .LASF80
     /tmp/cc45s6jW.s:2065   .debug_str:0000000000000223 .LASF54
     /tmp/cc45s6jW.s:2031   .debug_str:00000000000000fd .LASF55
     /tmp/cc45s6jW.s:2101   .debug_str:0000000000000330 .LASF56
     /tmp/cc45s6jW.s:2147   .debug_str:0000000000000527 .LASF81
     /tmp/cc45s6jW.s:2035   .debug_str:0000000000000120 .LASF57
     /tmp/cc45s6jW.s:216    .text:00000000000000f8 .LFB17
     /tmp/cc45s6jW.s:242    .text:000000000000012c .LFE17
     /tmp/cc45s6jW.s:232    .text:000000000000011c .LVL18
     /tmp/cc45s6jW.s:2111   .debug_str:000000000000035f .LASF58
     /tmp/cc45s6jW.s:9      .text:0000000000000000 .LFB16
     /tmp/cc45s6jW.s:51     .text:0000000000000038 .LFE16
     /tmp/cc45s6jW.s:2079   .debug_str:0000000000000274 .LASF59
     /tmp/cc45s6jW.s:1997   .debug_str:0000000000000029 .LASF60
     /tmp/cc45s6jW.s:38     .text:000000000000002c .LBB7
     /tmp/cc45s6jW.s:47     .text:0000000000000034 .LBE7
     /tmp/cc45s6jW.s:1849   .debug_loc:0000000000000000 .LLST0
     /tmp/cc45s6jW.s:131    .text:0000000000000090 .LFB15
     /tmp/cc45s6jW.s:211    .text:00000000000000f8 .LFE15
     /tmp/cc45s6jW.s:1858   .debug_loc:000000000000002c .LLST4
     /tmp/cc45s6jW.s:148    .text:00000000000000a8 .LBB16
     /tmp/cc45s6jW.s:1973   .debug_ranges:0000000000000000 .Ldebug_ranges0
     /tmp/cc45s6jW.s:1880   .debug_loc:000000000000008b .LLST5
     /tmp/cc45s6jW.s:1895   .debug_loc:00000000000000d4 .LLST6
     /tmp/cc45s6jW.s:1910   .debug_loc:000000000000011c .LLST7
     /tmp/cc45s6jW.s:156    .text:00000000000000b4 .LVL11
     /tmp/cc45s6jW.s:57     .text:0000000000000038 .LFB14
     /tmp/cc45s6jW.s:125    .text:0000000000000090 .LFE14
     /tmp/cc45s6jW.s:72     .text:000000000000004c .LBB10
     /tmp/cc45s6jW.s:1931   .debug_loc:000000000000017a .LLST1
     /tmp/cc45s6jW.s:1946   .debug_loc:00000000000001c2 .LLST2
     /tmp/cc45s6jW.s:1953   .debug_loc:00000000000001e5 .LLST3
     /tmp/cc45s6jW.s:92     .text:0000000000000070 .LVL5
     /tmp/cc45s6jW.s:2113   .debug_str:0000000000000389 .LASF63
     /tmp/cc45s6jW.s:2115   .debug_str:000000000000038e .LASF61
     /tmp/cc45s6jW.s:2025   .debug_str:00000000000000da .LASF62
     /tmp/cc45s6jW.s:2109   .debug_str:000000000000035a .LASF64
     /tmp/cc45s6jW.s:2083   .debug_str:00000000000002a5 .LASF65
     /tmp/cc45s6jW.s:2073   .debug_str:000000000000024d .LASF82
     /tmp/cc45s6jW.s:2011   .debug_str:000000000000007e .LASF66
     /tmp/cc45s6jW.s:2127   .debug_str:00000000000003cc .LASF68
     /tmp/cc45s6jW.s:2037   .debug_str:0000000000000144 .LASF67
     /tmp/cc45s6jW.s:2021   .debug_str:00000000000000c4 .LASF69
     /tmp/cc45s6jW.s:37     .text:000000000000002c .LVL1
GAS LISTING /tmp/cc45s6jW.s 			page 12


     /tmp/cc45s6jW.s:44     .text:0000000000000034 .LVL2
     /tmp/cc45s6jW.s:134    .text:0000000000000090 .LVL8
     /tmp/cc45s6jW.s:154    .text:00000000000000ac .LVL10
     /tmp/cc45s6jW.s:193    .text:00000000000000e4 .LVL15
     /tmp/cc45s6jW.s:197    .text:00000000000000ec .LVL16
     /tmp/cc45s6jW.s:147    .text:00000000000000a8 .LVL9
     /tmp/cc45s6jW.s:180    .text:00000000000000d8 .LVL14
     /tmp/cc45s6jW.s:205    .text:00000000000000f4 .LVL17
     /tmp/cc45s6jW.s:168    .text:00000000000000c8 .LVL12
     /tmp/cc45s6jW.s:174    .text:00000000000000d0 .LVL13
     /tmp/cc45s6jW.s:71     .text:000000000000004c .LVL3
     /tmp/cc45s6jW.s:112    .text:0000000000000088 .LVL6
     /tmp/cc45s6jW.s:119    .text:000000000000008c .LVL7
     /tmp/cc45s6jW.s:82     .text:000000000000005c .LVL4
     /tmp/cc45s6jW.s:262    .debug_info:0000000000000000 .Ldebug_info0
     /tmp/cc45s6jW.s:98     .text:0000000000000070 .LBE10
     /tmp/cc45s6jW.s:115    .text:0000000000000088 .LBB13
     /tmp/cc45s6jW.s:121    .text:000000000000008c .LBE13
     /tmp/cc45s6jW.s:183    .text:00000000000000d8 .LBE16
     /tmp/cc45s6jW.s:200    .text:00000000000000ec .LBB19
     /tmp/cc45s6jW.s:207    .text:00000000000000f4 .LBE19

UNDEFINED SYMBOLS
_Z8mem_freePv
_Z9mem_allocm
