GAS LISTING /tmp/cc7PtqJu.s 			page 1


   1              		.file	"semaphore.cpp"
   2              		.option pic
   3              		.option norelax
   4              		.text
   5              	.Ltext0:
   6              		.align	2
   7              		.globl	_ZN3Sem8sem_openEm
   9              	_ZN3Sem8sem_openEm:
  10              	.LFB17:
  11              		.file 1 "src/semaphore.cpp"
   1:src/semaphore.cpp **** //
   2:src/semaphore.cpp **** // Created by os on 9/3/24.
   3:src/semaphore.cpp **** //
   4:src/semaphore.cpp **** 
   5:src/semaphore.cpp **** #include "../h/semaphore.hpp"
   6:src/semaphore.cpp **** 
   7:src/semaphore.cpp **** Sem* Sem::sem_open(uint64 val){
  12              		.loc 1 7 31
  13              		.cfi_startproc
  14              	.LVL0:
  15 0000 130101FE 		addi	sp,sp,-32
  16              		.cfi_def_cfa_offset 32
  17 0004 233C1100 		sd	ra,24(sp)
  18 0008 23388100 		sd	s0,16(sp)
  19 000c 23349100 		sd	s1,8(sp)
  20              		.cfi_offset 1, -8
  21              		.cfi_offset 8, -16
  22              		.cfi_offset 9, -24
  23 0010 13040102 		addi	s0,sp,32
  24              		.cfi_def_cfa 8, 0
  25 0014 93040500 		mv	s1,a0
   8:src/semaphore.cpp ****     return new Sem(val);
  26              		.loc 1 8 5
  27              		.loc 1 8 23 is_stmt 0
  28 0018 13050001 		li	a0,16
  29              	.LVL1:
  30 001c 97000000 		call	_Znwm@plt
  30      E7800000 
  31              	.LVL2:
  32              	.LBB26:
  33              	.LBB27:
  34              		.file 2 "src/../h/semaphore.hpp"
   1:src/../h/semaphore.hpp **** //
   2:src/../h/semaphore.hpp **** // Created by os on 9/3/24.
   3:src/../h/semaphore.hpp **** //
   4:src/../h/semaphore.hpp **** 
   5:src/../h/semaphore.hpp **** #ifndef PROJECT_BASE_SEMAPHORE_HPP
   6:src/../h/semaphore.hpp **** #define PROJECT_BASE_SEMAPHORE_HPP
   7:src/../h/semaphore.hpp **** 
   8:src/../h/semaphore.hpp **** #include "../h/list.hpp"
   9:src/../h/semaphore.hpp **** #include "../h/scheduler.hpp"
  10:src/../h/semaphore.hpp **** #include "../h/tcb.hpp"
  11:src/../h/semaphore.hpp **** 
  12:src/../h/semaphore.hpp **** 
  13:src/../h/semaphore.hpp **** class Sem {
  14:src/../h/semaphore.hpp **** public:
  15:src/../h/semaphore.hpp ****     static Sem* sem_open(uint64 val);
GAS LISTING /tmp/cc7PtqJu.s 			page 2


  16:src/../h/semaphore.hpp ****     void sem_close();
  17:src/../h/semaphore.hpp **** 
  18:src/../h/semaphore.hpp ****     void sem_wait();
  19:src/../h/semaphore.hpp ****     void sem_signal();
  20:src/../h/semaphore.hpp **** 
  21:src/../h/semaphore.hpp ****     int sem_trywait();
  22:src/../h/semaphore.hpp **** 
  23:src/../h/semaphore.hpp **** private:
  24:src/../h/semaphore.hpp **** 
  25:src/../h/semaphore.hpp ****     int val;
  26:src/../h/semaphore.hpp ****     List blocked;
  27:src/../h/semaphore.hpp **** 
  28:src/../h/semaphore.hpp ****     Sem(uint64 val) : val(val) {}
  35              		.loc 2 28 30
  36 0024 23209500 		sw	s1,0(a0)
  37              	.LVL3:
  38              	.LBB28:
  39              	.LBB29:
  40              		.file 3 "src/../h/../h/list.hpp"
   1:src/../h/../h/list.hpp **** //
   2:src/../h/../h/list.hpp **** // Created by os on 8/21/24.
   3:src/../h/../h/list.hpp **** //
   4:src/../h/../h/list.hpp **** 
   5:src/../h/../h/list.hpp **** #ifndef PROJECT_BASE_LIST_HPP
   6:src/../h/../h/list.hpp **** #define PROJECT_BASE_LIST_HPP
   7:src/../h/../h/list.hpp **** 
   8:src/../h/../h/list.hpp **** #include "../h/syscall_c.hpp"
   9:src/../h/../h/list.hpp **** 
  10:src/../h/../h/list.hpp **** class TCB;
  11:src/../h/../h/list.hpp **** 
  12:src/../h/../h/list.hpp **** class List {
  13:src/../h/../h/list.hpp **** public:
  14:src/../h/../h/list.hpp **** 
  15:src/../h/../h/list.hpp ****     typedef struct elem{
  16:src/../h/../h/list.hpp ****         TCB* data;
  17:src/../h/../h/list.hpp ****         elem* next;
  18:src/../h/../h/list.hpp ****     }Elem;
  19:src/../h/../h/list.hpp **** 
  20:src/../h/../h/list.hpp ****     Elem* head;
  21:src/../h/../h/list.hpp **** 
  22:src/../h/../h/list.hpp ****     List () : head(0) {};
  41              		.loc 3 22 21
  42 0028 23340500 		sd	zero,8(a0)
  43              	.LVL4:
  44              	.LBE29:
  45              	.LBE28:
  46              	.LBE27:
  47              	.LBE26:
   9:src/semaphore.cpp **** }
  48              		.loc 1 9 1
  49 002c 83308101 		ld	ra,24(sp)
  50              		.cfi_restore 1
  51 0030 03340101 		ld	s0,16(sp)
  52              		.cfi_restore 8
  53              		.cfi_def_cfa 2, 32
  54 0034 83348100 		ld	s1,8(sp)
  55              		.cfi_restore 9
GAS LISTING /tmp/cc7PtqJu.s 			page 3


  56              	.LVL5:
  57 0038 13010102 		addi	sp,sp,32
  58              		.cfi_def_cfa_offset 0
  59 003c 67800000 		jr	ra
  60              		.cfi_endproc
  61              	.LFE17:
  63              		.align	2
  64              		.globl	_ZN3Sem9sem_closeEv
  66              	_ZN3Sem9sem_closeEv:
  67              	.LFB18:
  10:src/semaphore.cpp **** 
  11:src/semaphore.cpp **** void Sem::sem_close() {
  68              		.loc 1 11 23 is_stmt 1
  69              		.cfi_startproc
  70              	.LVL6:
  71 0040 130101FE 		addi	sp,sp,-32
  72              		.cfi_def_cfa_offset 32
  73 0044 233C1100 		sd	ra,24(sp)
  74 0048 23388100 		sd	s0,16(sp)
  75 004c 23349100 		sd	s1,8(sp)
  76 0050 23302101 		sd	s2,0(sp)
  77              		.cfi_offset 1, -8
  78              		.cfi_offset 8, -16
  79              		.cfi_offset 9, -24
  80              		.cfi_offset 18, -32
  81 0054 13040102 		addi	s0,sp,32
  82              		.cfi_def_cfa 8, 0
  83 0058 13090500 		mv	s2,a0
  12:src/semaphore.cpp ****     TCB* curr = 0;
  84              		.loc 1 12 5
  85              	.LVL7:
  86              	.L5:
  13:src/semaphore.cpp ****     while (blocked.peekFront()){
  87              		.loc 1 13 5
  88              		.loc 1 13 30
  89              	.LBB30:
  90              	.LBB31:
  23:src/../h/../h/list.hpp **** 
  24:src/../h/../h/list.hpp ****     void addFront (TCB* data){
  25:src/../h/../h/list.hpp ****         Elem* newElem = (Elem*)mem_alloc(sizeof(Elem));
  26:src/../h/../h/list.hpp **** 
  27:src/../h/../h/list.hpp ****         newElem->data = data;
  28:src/../h/../h/list.hpp ****         newElem->next = head;
  29:src/../h/../h/list.hpp ****         head = newElem;
  30:src/../h/../h/list.hpp ****     }
  31:src/../h/../h/list.hpp **** 
  32:src/../h/../h/list.hpp ****     void addRear (TCB* data){
  33:src/../h/../h/list.hpp ****         Elem* curr = 0;
  34:src/../h/../h/list.hpp ****         Elem* newElem = (Elem*)mem_alloc(sizeof(Elem));
  35:src/../h/../h/list.hpp **** 
  36:src/../h/../h/list.hpp ****         newElem->data = data;
  37:src/../h/../h/list.hpp ****         newElem->next = 0;
  38:src/../h/../h/list.hpp ****         if (head) {
  39:src/../h/../h/list.hpp ****             for (curr = head; curr->next != 0; curr = curr->next);
  40:src/../h/../h/list.hpp ****             curr->next = newElem;
  41:src/../h/../h/list.hpp ****         }
  42:src/../h/../h/list.hpp ****         else head = newElem;
GAS LISTING /tmp/cc7PtqJu.s 			page 4


  43:src/../h/../h/list.hpp ****     }
  44:src/../h/../h/list.hpp **** 
  45:src/../h/../h/list.hpp ****     TCB* popFront () {
  46:src/../h/../h/list.hpp ****         if (head == 0) return 0;
  47:src/../h/../h/list.hpp ****         TCB* tmpTCB = head->data;
  48:src/../h/../h/list.hpp ****         Elem* tmpElem = head;
  49:src/../h/../h/list.hpp **** 
  50:src/../h/../h/list.hpp ****         head = head->next;
  51:src/../h/../h/list.hpp ****         if(mem_free(tmpElem)) {};
  52:src/../h/../h/list.hpp ****         tmpElem = 0;
  53:src/../h/../h/list.hpp ****         return tmpTCB;
  54:src/../h/../h/list.hpp ****     }
  55:src/../h/../h/list.hpp **** 
  56:src/../h/../h/list.hpp ****     TCB* peekFront () {
  57:src/../h/../h/list.hpp ****         if (head == 0) return 0;
  91              		.loc 3 57 9
  92              		.loc 3 57 13 is_stmt 0
  93 005c 03358900 		ld	a0,8(s2)
  94              		.loc 3 57 9
  95 0060 63060502 		beqz	a0,.L3
  58:src/../h/../h/list.hpp ****         return head->data;
  96              		.loc 3 58 9 is_stmt 1
  97              		.loc 3 58 22 is_stmt 0
  98 0064 83340500 		ld	s1,0(a0)
  99              	.LVL8:
 100              	.LBE31:
 101              	.LBE30:
 102              		.loc 1 13 30
 103 0068 63820402 		beqz	s1,.L3
  14:src/semaphore.cpp ****         curr = blocked.popFront();
 104              		.loc 1 14 9 is_stmt 1
 105              	.LVL9:
 106              	.LBB32:
 107              	.LBB33:
  46:src/../h/../h/list.hpp ****         TCB* tmpTCB = head->data;
 108              		.loc 3 46 9
  47:src/../h/../h/list.hpp ****         Elem* tmpElem = head;
 109              		.loc 3 47 9
  48:src/../h/../h/list.hpp **** 
 110              		.loc 3 48 9
  50:src/../h/../h/list.hpp ****         if(mem_free(tmpElem)) {};
 111              		.loc 3 50 9
  50:src/../h/../h/list.hpp ****         if(mem_free(tmpElem)) {};
 112              		.loc 3 50 22 is_stmt 0
 113 006c 83378500 		ld	a5,8(a0)
  50:src/../h/../h/list.hpp ****         if(mem_free(tmpElem)) {};
 114              		.loc 3 50 14
 115 0070 2334F900 		sd	a5,8(s2)
  51:src/../h/../h/list.hpp ****         tmpElem = 0;
 116              		.loc 3 51 9 is_stmt 1
  51:src/../h/../h/list.hpp ****         tmpElem = 0;
 117              		.loc 3 51 20 is_stmt 0
 118 0074 97000000 		call	_Z8mem_freePv@plt
 118      E7800000 
 119              	.LVL10:
  51:src/../h/../h/list.hpp ****         tmpElem = 0;
 120              		.loc 3 51 33 is_stmt 1
GAS LISTING /tmp/cc7PtqJu.s 			page 5


  52:src/../h/../h/list.hpp ****         return tmpTCB;
 121              		.loc 3 52 9
  53:src/../h/../h/list.hpp ****     }
 122              		.loc 3 53 9
 123              	.LBE33:
 124              	.LBE32:
  15:src/semaphore.cpp ****         Scheduler::put(curr);
 125              		.loc 1 15 9
 126              		.loc 1 15 23 is_stmt 0
 127 007c 13850400 		mv	a0,s1
 128 0080 97000000 		call	_ZN9Scheduler3putEP3TCB@plt
 128      E7800000 
 129              	.LVL11:
  13:src/semaphore.cpp ****         curr = blocked.popFront();
 130              		.loc 1 13 5
 131 0088 6FF05FFD 		j	.L5
 132              	.LVL12:
 133              	.L3:
  16:src/semaphore.cpp ****     }
  17:src/semaphore.cpp **** }
 134              		.loc 1 17 1
 135 008c 83308101 		ld	ra,24(sp)
 136              		.cfi_restore 1
 137 0090 03340101 		ld	s0,16(sp)
 138              		.cfi_restore 8
 139              		.cfi_def_cfa 2, 32
 140 0094 83348100 		ld	s1,8(sp)
 141              		.cfi_restore 9
 142 0098 03390100 		ld	s2,0(sp)
 143              		.cfi_restore 18
 144              	.LVL13:
 145 009c 13010102 		addi	sp,sp,32
 146              		.cfi_def_cfa_offset 0
 147 00a0 67800000 		jr	ra
 148              		.cfi_endproc
 149              	.LFE18:
 151              		.align	2
 152              		.globl	_ZN3Sem8sem_waitEv
 154              	_ZN3Sem8sem_waitEv:
 155              	.LFB19:
  18:src/semaphore.cpp **** 
  19:src/semaphore.cpp **** void Sem::sem_wait() {
 156              		.loc 1 19 22 is_stmt 1
 157              		.cfi_startproc
 158              	.LVL14:
 159 00a4 130101FE 		addi	sp,sp,-32
 160              		.cfi_def_cfa_offset 32
 161 00a8 233C1100 		sd	ra,24(sp)
 162 00ac 23388100 		sd	s0,16(sp)
 163 00b0 23349100 		sd	s1,8(sp)
 164 00b4 23302101 		sd	s2,0(sp)
 165              		.cfi_offset 1, -8
 166              		.cfi_offset 8, -16
 167              		.cfi_offset 9, -24
 168              		.cfi_offset 18, -32
 169 00b8 13040102 		addi	s0,sp,32
 170              		.cfi_def_cfa 8, 0
GAS LISTING /tmp/cc7PtqJu.s 			page 6


  20:src/semaphore.cpp ****     TCB* curr = TCB::running;
 171              		.loc 1 20 5
 172              		.loc 1 20 10 is_stmt 0
 173 00bc 97070000 		la	a5,_ZN3TCB7runningE
 173      83B70700 
 174 00c4 03B90700 		ld	s2,0(a5)
 175              	.LVL15:
  21:src/semaphore.cpp ****     if (--val < 0) {
 176              		.loc 1 21 5 is_stmt 1
 177              		.loc 1 21 11 is_stmt 0
 178 00c8 83270500 		lw	a5,0(a0)
 179              		.loc 1 21 9
 180 00cc 9B87F7FF 		addiw	a5,a5,-1
 181              		.loc 1 21 15
 182 00d0 2320F500 		sw	a5,0(a0)
 183              		.loc 1 21 5
 184 00d4 13970702 		slli	a4,a5,32
 185 00d8 634E0700 		bltz	a4,.L13
 186              	.LVL16:
 187              	.L7:
  22:src/semaphore.cpp ****         curr->setActive(0);
  23:src/semaphore.cpp ****         blocked.addRear(curr);
  24:src/semaphore.cpp ****         TCB::dispatch();
  25:src/semaphore.cpp ****     }
  26:src/semaphore.cpp **** }
 188              		.loc 1 26 1
 189 00dc 83308101 		ld	ra,24(sp)
 190              		.cfi_remember_state
 191              		.cfi_restore 1
 192 00e0 03340101 		ld	s0,16(sp)
 193              		.cfi_restore 8
 194              		.cfi_def_cfa 2, 32
 195 00e4 83348100 		ld	s1,8(sp)
 196              		.cfi_restore 9
 197 00e8 03390100 		ld	s2,0(sp)
 198              		.cfi_restore 18
 199              	.LVL17:
 200 00ec 13010102 		addi	sp,sp,32
 201              		.cfi_def_cfa_offset 0
 202 00f0 67800000 		jr	ra
 203              	.LVL18:
 204              	.L13:
 205              		.cfi_restore_state
 206 00f4 93040500 		mv	s1,a0
  22:src/semaphore.cpp ****         curr->setActive(0);
 207              		.loc 1 22 9 is_stmt 1
 208              	.LVL19:
 209              	.LBB38:
 210              	.LBB39:
 211              		.file 4 "src/../h/../h/tcb.hpp"
   1:src/../h/../h/tcb.hpp **** //
   2:src/../h/../h/tcb.hpp **** // Created by os on 8/20/24.
   3:src/../h/../h/tcb.hpp **** //
   4:src/../h/../h/tcb.hpp **** 
   5:src/../h/../h/tcb.hpp **** #ifndef PROJECT_BASE_TCB_HPP
   6:src/../h/../h/tcb.hpp **** #define PROJECT_BASE_TCB_HPP
   7:src/../h/../h/tcb.hpp **** 
GAS LISTING /tmp/cc7PtqJu.s 			page 7


   8:src/../h/../h/tcb.hpp **** #include "scheduler.hpp"
   9:src/../h/../h/tcb.hpp **** 
  10:src/../h/../h/tcb.hpp **** 
  11:src/../h/../h/tcb.hpp **** class TCB {
  12:src/../h/../h/tcb.hpp **** 
  13:src/../h/../h/tcb.hpp **** public:
  14:src/../h/../h/tcb.hpp **** 
  15:src/../h/../h/tcb.hpp ****     bool getFinished () const { return finished; }
  16:src/../h/../h/tcb.hpp ****     void setFinished (bool val) { finished = val; }
  17:src/../h/../h/tcb.hpp **** 
  18:src/../h/../h/tcb.hpp ****     bool getActive () const { return active; }
  19:src/../h/../h/tcb.hpp ****     void setActive (bool val) { active = val; }
 212              		.loc 4 19 33
 213              		.loc 4 19 40 is_stmt 0
 214 00f8 23040902 		sb	zero,40(s2)
 215              	.LVL20:
 216              	.LBE39:
 217              	.LBE38:
  23:src/semaphore.cpp ****         TCB::dispatch();
 218              		.loc 1 23 9 is_stmt 1
 219              	.LBB40:
 220              	.LBB41:
  33:src/../h/../h/list.hpp ****         Elem* newElem = (Elem*)mem_alloc(sizeof(Elem));
 221              		.loc 3 33 9
  34:src/../h/../h/list.hpp **** 
 222              		.loc 3 34 9
  34:src/../h/../h/list.hpp **** 
 223              		.loc 3 34 41 is_stmt 0
 224 00fc 13050001 		li	a0,16
 225              	.LVL21:
 226 0100 97000000 		call	_Z9mem_allocm@plt
 226      E7800000 
 227              	.LVL22:
  36:src/../h/../h/list.hpp ****         newElem->next = 0;
 228              		.loc 3 36 9 is_stmt 1
  36:src/../h/../h/list.hpp ****         newElem->next = 0;
 229              		.loc 3 36 23 is_stmt 0
 230 0108 23302501 		sd	s2,0(a0)
  37:src/../h/../h/list.hpp ****         if (head) {
 231              		.loc 3 37 9 is_stmt 1
  37:src/../h/../h/list.hpp ****         if (head) {
 232              		.loc 3 37 23 is_stmt 0
 233 010c 23340500 		sd	zero,8(a0)
  38:src/../h/../h/list.hpp ****             for (curr = head; curr->next != 0; curr = curr->next);
 234              		.loc 3 38 9 is_stmt 1
  38:src/../h/../h/list.hpp ****             for (curr = head; curr->next != 0; curr = curr->next);
 235              		.loc 3 38 13 is_stmt 0
 236 0110 83B78400 		ld	a5,8(s1)
  38:src/../h/../h/list.hpp ****             for (curr = head; curr->next != 0; curr = curr->next);
 237              		.loc 3 38 9
 238 0114 63800702 		beqz	a5,.L9
 239              	.LVL23:
 240              	.L10:
  39:src/../h/../h/list.hpp ****             curr->next = newElem;
 241              		.loc 3 39 42 is_stmt 1
 242 0118 13870700 		mv	a4,a5
  39:src/../h/../h/list.hpp ****             curr->next = newElem;
GAS LISTING /tmp/cc7PtqJu.s 			page 8


 243              		.loc 3 39 37 is_stmt 0
 244 011c 83B78700 		ld	a5,8(a5)
 245              	.LVL24:
  39:src/../h/../h/list.hpp ****             curr->next = newElem;
 246              		.loc 3 39 42
 247 0120 E39C07FE 		bnez	a5,.L10
  40:src/../h/../h/list.hpp ****         }
 248              		.loc 3 40 13 is_stmt 1
  40:src/../h/../h/list.hpp ****         }
 249              		.loc 3 40 24 is_stmt 0
 250 0124 2334A700 		sd	a0,8(a4)
 251              	.LVL25:
 252              	.L11:
 253              	.LBE41:
 254              	.LBE40:
  24:src/semaphore.cpp ****     }
 255              		.loc 1 24 9 is_stmt 1
  24:src/semaphore.cpp ****     }
 256              		.loc 1 24 22 is_stmt 0
 257 0128 97000000 		call	_ZN3TCB8dispatchEv@plt
 257      E7800000 
 258              	.LVL26:
 259              		.loc 1 26 1
 260 0130 6FF0DFFA 		j	.L7
 261              	.LVL27:
 262              	.L9:
 263              	.LBB43:
 264              	.LBB42:
  42:src/../h/../h/list.hpp ****     }
 265              		.loc 3 42 14 is_stmt 1
  42:src/../h/../h/list.hpp ****     }
 266              		.loc 3 42 19 is_stmt 0
 267 0134 23B4A400 		sd	a0,8(s1)
 268 0138 6FF01FFF 		j	.L11
 269              	.LBE42:
 270              	.LBE43:
 271              		.cfi_endproc
 272              	.LFE19:
 274              		.align	2
 275              		.globl	_ZN3Sem10sem_signalEv
 277              	_ZN3Sem10sem_signalEv:
 278              	.LFB20:
  27:src/semaphore.cpp **** 
  28:src/semaphore.cpp **** void Sem::sem_signal() {
 279              		.loc 1 28 24 is_stmt 1
 280              		.cfi_startproc
 281              	.LVL28:
  29:src/semaphore.cpp ****     if (++val <= 0 && blocked.peekFront()){
 282              		.loc 1 29 5
 283              		.loc 1 29 11 is_stmt 0
 284 013c 83270500 		lw	a5,0(a0)
 285              		.loc 1 29 9
 286 0140 9B871700 		addiw	a5,a5,1
 287 0144 1B870700 		sext.w	a4,a5
 288              		.loc 1 29 20
 289 0148 2320F500 		sw	a5,0(a0)
 290 014c 6354E000 		blez	a4,.L22
GAS LISTING /tmp/cc7PtqJu.s 			page 9


 291              	.L19:
 292 0150 67800000 		ret
 293              	.L22:
 294              	.LVL29:
 295              	.LBB44:
 296              	.LBB45:
  57:src/../h/../h/list.hpp ****         return head->data;
 297              		.loc 3 57 9 is_stmt 1 discriminator 1
  57:src/../h/../h/list.hpp ****         return head->data;
 298              		.loc 3 57 13 is_stmt 0 discriminator 1
 299 0154 83378500 		ld	a5,8(a0)
  57:src/../h/../h/list.hpp ****         return head->data;
 300              		.loc 3 57 9 discriminator 1
 301 0158 E38C07FE 		beqz	a5,.L19
 302              		.loc 3 58 9 is_stmt 1
 303              		.loc 3 58 22 is_stmt 0
 304 015c 83B70700 		ld	a5,0(a5)
 305              	.LVL30:
 306              	.LBE45:
 307              	.LBE44:
 308              		.loc 1 29 20
 309 0160 E38807FE 		beqz	a5,.L19
  28:src/semaphore.cpp ****     if (++val <= 0 && blocked.peekFront()){
 310              		.loc 1 28 24
 311 0164 130101FE 		addi	sp,sp,-32
 312              		.cfi_def_cfa_offset 32
 313 0168 233C1100 		sd	ra,24(sp)
 314 016c 23388100 		sd	s0,16(sp)
 315 0170 23349100 		sd	s1,8(sp)
 316              		.cfi_offset 1, -8
 317              		.cfi_offset 8, -16
 318              		.cfi_offset 9, -24
 319 0174 13040102 		addi	s0,sp,32
 320              		.cfi_def_cfa 8, 0
  30:src/semaphore.cpp ****         blocked.peekFront()->setActive(1);
 321              		.loc 1 30 9 is_stmt 1
 322              	.LVL31:
  57:src/../h/../h/list.hpp ****         return head->data;
 323              		.loc 3 57 9
 324              		.loc 3 58 9
 325              	.LBB46:
 326              	.LBB47:
 327              		.loc 4 19 33
 328              		.loc 4 19 40 is_stmt 0
 329 0178 13071000 		li	a4,1
 330 017c 2384E702 		sb	a4,40(a5)
 331              	.LVL32:
 332              	.LBE47:
 333              	.LBE46:
  31:src/semaphore.cpp ****         Scheduler::put(blocked.popFront());
 334              		.loc 1 31 9 is_stmt 1
 335              	.LBB48:
 336              	.LBB49:
  46:src/../h/../h/list.hpp ****         TCB* tmpTCB = head->data;
 337              		.loc 3 46 9
  46:src/../h/../h/list.hpp ****         TCB* tmpTCB = head->data;
 338              		.loc 3 46 13 is_stmt 0
GAS LISTING /tmp/cc7PtqJu.s 			page 10


 339 0180 83378500 		ld	a5,8(a0)
  46:src/../h/../h/list.hpp ****         TCB* tmpTCB = head->data;
 340              		.loc 3 46 9
 341 0184 638E0702 		beqz	a5,.L17
  47:src/../h/../h/list.hpp ****         Elem* tmpElem = head;
 342              		.loc 3 47 9 is_stmt 1
  47:src/../h/../h/list.hpp ****         Elem* tmpElem = head;
 343              		.loc 3 47 14 is_stmt 0
 344 0188 83B40700 		ld	s1,0(a5)
 345              	.LVL33:
  48:src/../h/../h/list.hpp **** 
 346              		.loc 3 48 9 is_stmt 1
  50:src/../h/../h/list.hpp ****         if(mem_free(tmpElem)) {};
 347              		.loc 3 50 9
  50:src/../h/../h/list.hpp ****         if(mem_free(tmpElem)) {};
 348              		.loc 3 50 22 is_stmt 0
 349 018c 03B78700 		ld	a4,8(a5)
  50:src/../h/../h/list.hpp ****         if(mem_free(tmpElem)) {};
 350              		.loc 3 50 14
 351 0190 2334E500 		sd	a4,8(a0)
  51:src/../h/../h/list.hpp ****         tmpElem = 0;
 352              		.loc 3 51 9 is_stmt 1
  51:src/../h/../h/list.hpp ****         tmpElem = 0;
 353              		.loc 3 51 20 is_stmt 0
 354 0194 13850700 		mv	a0,a5
 355              	.LVL34:
 356 0198 97000000 		call	_Z8mem_freePv@plt
 356      E7800000 
 357              	.LVL35:
  51:src/../h/../h/list.hpp ****         tmpElem = 0;
 358              		.loc 3 51 33 is_stmt 1
  52:src/../h/../h/list.hpp ****         return tmpTCB;
 359              		.loc 3 52 9
  53:src/../h/../h/list.hpp ****     }
 360              		.loc 3 53 9
 361              	.L16:
 362              	.LBE49:
 363              	.LBE48:
 364              		.loc 1 31 23 is_stmt 0
 365 01a0 13850400 		mv	a0,s1
 366 01a4 97000000 		call	_ZN9Scheduler3putEP3TCB@plt
 366      E7800000 
 367              	.LVL36:
  32:src/semaphore.cpp ****     }
  33:src/semaphore.cpp **** }
 368              		.loc 1 33 1
 369 01ac 83308101 		ld	ra,24(sp)
 370              		.cfi_remember_state
 371              		.cfi_restore 1
 372 01b0 03340101 		ld	s0,16(sp)
 373              		.cfi_restore 8
 374              		.cfi_def_cfa 2, 32
 375 01b4 83348100 		ld	s1,8(sp)
 376              		.cfi_restore 9
 377 01b8 13010102 		addi	sp,sp,32
 378              		.cfi_def_cfa_offset 0
 379 01bc 67800000 		jr	ra
GAS LISTING /tmp/cc7PtqJu.s 			page 11


 380              	.LVL37:
 381              	.L17:
 382              		.cfi_restore_state
 383              	.LBB51:
 384              	.LBB50:
  46:src/../h/../h/list.hpp ****         TCB* tmpTCB = head->data;
 385              		.loc 3 46 31
 386 01c0 93840700 		mv	s1,a5
 387 01c4 6FF0DFFD 		j	.L16
 388              	.LBE50:
 389              	.LBE51:
 390              		.cfi_endproc
 391              	.LFE20:
 393              		.align	2
 394              		.globl	_ZN3Sem11sem_trywaitEv
 396              	_ZN3Sem11sem_trywaitEv:
 397              	.LFB21:
  34:src/semaphore.cpp **** 
  35:src/semaphore.cpp **** int Sem::sem_trywait() {
 398              		.loc 1 35 24 is_stmt 1
 399              		.cfi_startproc
 400              	.LVL38:
 401 01c8 130101FF 		addi	sp,sp,-16
 402              		.cfi_def_cfa_offset 16
 403 01cc 23348100 		sd	s0,8(sp)
 404              		.cfi_offset 8, -8
 405 01d0 13040101 		addi	s0,sp,16
 406              		.cfi_def_cfa 8, 0
  36:src/semaphore.cpp ****     val--;
 407              		.loc 1 36 5
 408 01d4 03270500 		lw	a4,0(a0)
 409              		.loc 1 36 8 is_stmt 0
 410 01d8 9B07F7FF 		addiw	a5,a4,-1
 411 01dc 2320F500 		sw	a5,0(a0)
  37:src/semaphore.cpp ****     if (val < 0)
 412              		.loc 1 37 5 is_stmt 1
 413 01e0 93960702 		slli	a3,a5,32
 414 01e4 63CA0600 		bltz	a3,.L27
  38:src/semaphore.cpp ****     {
  39:src/semaphore.cpp ****         val++;
  40:src/semaphore.cpp ****         return 1;
  41:src/semaphore.cpp ****     }
  42:src/semaphore.cpp ****     else return 0;
 415              		.loc 1 42 17 is_stmt 0
 416 01e8 13050000 		li	a0,0
 417              	.LVL39:
 418              	.L24:
  43:src/semaphore.cpp **** }
 419              		.loc 1 43 1
 420 01ec 03348100 		ld	s0,8(sp)
 421              		.cfi_remember_state
 422              		.cfi_restore 8
 423              		.cfi_def_cfa 2, 16
 424 01f0 13010101 		addi	sp,sp,16
 425              		.cfi_def_cfa_offset 0
 426 01f4 67800000 		jr	ra
 427              	.LVL40:
GAS LISTING /tmp/cc7PtqJu.s 			page 12


 428              	.L27:
 429              		.cfi_restore_state
  39:src/semaphore.cpp ****         return 1;
 430              		.loc 1 39 9 is_stmt 1
  39:src/semaphore.cpp ****         return 1;
 431              		.loc 1 39 12 is_stmt 0
 432 01f8 2320E500 		sw	a4,0(a0)
  40:src/semaphore.cpp ****     }
 433              		.loc 1 40 9 is_stmt 1
  40:src/semaphore.cpp ****     }
 434              		.loc 1 40 16 is_stmt 0
 435 01fc 13051000 		li	a0,1
 436              	.LVL41:
 437 0200 6FF0DFFE 		j	.L24
 438              		.cfi_endproc
 439              	.LFE21:
 441              	.Letext0:
 442              		.file 5 "src/../h/../h/../h/../lib/hw.h"
 443              		.file 6 "src/../h/../h/scheduler.hpp"
 444              		.file 7 "src/../h/../h/../h/syscall_c.hpp"
GAS LISTING /tmp/cc7PtqJu.s 			page 13


DEFINED SYMBOLS
                            *ABS*:0000000000000000 semaphore.cpp
     /tmp/cc7PtqJu.s:9      .text:0000000000000000 _ZN3Sem8sem_openEm
     /tmp/cc7PtqJu.s:13     .text:0000000000000000 .L0 
     /tmp/cc7PtqJu.s:15     .text:0000000000000000 .L0 
     /tmp/cc7PtqJu.s:16     .text:0000000000000004 .L0 
     /tmp/cc7PtqJu.s:20     .text:0000000000000010 .L0 
     /tmp/cc7PtqJu.s:21     .text:0000000000000010 .L0 
     /tmp/cc7PtqJu.s:22     .text:0000000000000010 .L0 
     /tmp/cc7PtqJu.s:24     .text:0000000000000014 .L0 
     /tmp/cc7PtqJu.s:27     .text:0000000000000018 .L0 
     /tmp/cc7PtqJu.s:28     .text:0000000000000018 .L0 
     /tmp/cc7PtqJu.s:36     .text:0000000000000024 .L0 
     /tmp/cc7PtqJu.s:42     .text:0000000000000028 .L0 
     /tmp/cc7PtqJu.s:49     .text:000000000000002c .L0 
     /tmp/cc7PtqJu.s:50     .text:0000000000000030 .L0 
     /tmp/cc7PtqJu.s:52     .text:0000000000000034 .L0 
     /tmp/cc7PtqJu.s:53     .text:0000000000000034 .L0 
     /tmp/cc7PtqJu.s:55     .text:0000000000000038 .L0 
     /tmp/cc7PtqJu.s:58     .text:000000000000003c .L0 
     /tmp/cc7PtqJu.s:60     .text:0000000000000040 .L0 
     /tmp/cc7PtqJu.s:66     .text:0000000000000040 _ZN3Sem9sem_closeEv
     /tmp/cc7PtqJu.s:69     .text:0000000000000040 .L0 
     /tmp/cc7PtqJu.s:71     .text:0000000000000040 .L0 
     /tmp/cc7PtqJu.s:72     .text:0000000000000044 .L0 
     /tmp/cc7PtqJu.s:77     .text:0000000000000054 .L0 
     /tmp/cc7PtqJu.s:78     .text:0000000000000054 .L0 
     /tmp/cc7PtqJu.s:79     .text:0000000000000054 .L0 
     /tmp/cc7PtqJu.s:80     .text:0000000000000054 .L0 
     /tmp/cc7PtqJu.s:82     .text:0000000000000058 .L0 
     /tmp/cc7PtqJu.s:87     .text:000000000000005c .L0 
     /tmp/cc7PtqJu.s:88     .text:000000000000005c .L0 
     /tmp/cc7PtqJu.s:91     .text:000000000000005c .L0 
     /tmp/cc7PtqJu.s:92     .text:000000000000005c .L0 
     /tmp/cc7PtqJu.s:93     .text:000000000000005c .L0 
     /tmp/cc7PtqJu.s:95     .text:0000000000000060 .L0 
     /tmp/cc7PtqJu.s:97     .text:0000000000000064 .L0 
     /tmp/cc7PtqJu.s:98     .text:0000000000000064 .L0 
     /tmp/cc7PtqJu.s:103    .text:0000000000000068 .L0 
     /tmp/cc7PtqJu.s:108    .text:000000000000006c .L0 
     /tmp/cc7PtqJu.s:109    .text:000000000000006c .L0 
     /tmp/cc7PtqJu.s:110    .text:000000000000006c .L0 
     /tmp/cc7PtqJu.s:111    .text:000000000000006c .L0 
     /tmp/cc7PtqJu.s:112    .text:000000000000006c .L0 
     /tmp/cc7PtqJu.s:113    .text:000000000000006c .L0 
     /tmp/cc7PtqJu.s:115    .text:0000000000000070 .L0 
     /tmp/cc7PtqJu.s:117    .text:0000000000000074 .L0 
     /tmp/cc7PtqJu.s:118    .text:0000000000000074 .L0 
     /tmp/cc7PtqJu.s:121    .text:000000000000007c .L0 
     /tmp/cc7PtqJu.s:122    .text:000000000000007c .L0 
     /tmp/cc7PtqJu.s:125    .text:000000000000007c .L0 
     /tmp/cc7PtqJu.s:126    .text:000000000000007c .L0 
     /tmp/cc7PtqJu.s:127    .text:000000000000007c .L0 
     /tmp/cc7PtqJu.s:131    .text:0000000000000088 .L0 
     /tmp/cc7PtqJu.s:135    .text:000000000000008c .L0 
     /tmp/cc7PtqJu.s:136    .text:0000000000000090 .L0 
     /tmp/cc7PtqJu.s:138    .text:0000000000000094 .L0 
GAS LISTING /tmp/cc7PtqJu.s 			page 14


     /tmp/cc7PtqJu.s:139    .text:0000000000000094 .L0 
     /tmp/cc7PtqJu.s:141    .text:0000000000000098 .L0 
     /tmp/cc7PtqJu.s:143    .text:000000000000009c .L0 
     /tmp/cc7PtqJu.s:146    .text:00000000000000a0 .L0 
     /tmp/cc7PtqJu.s:148    .text:00000000000000a4 .L0 
     /tmp/cc7PtqJu.s:154    .text:00000000000000a4 _ZN3Sem8sem_waitEv
     /tmp/cc7PtqJu.s:157    .text:00000000000000a4 .L0 
     /tmp/cc7PtqJu.s:159    .text:00000000000000a4 .L0 
     /tmp/cc7PtqJu.s:160    .text:00000000000000a8 .L0 
     /tmp/cc7PtqJu.s:165    .text:00000000000000b8 .L0 
     /tmp/cc7PtqJu.s:166    .text:00000000000000b8 .L0 
     /tmp/cc7PtqJu.s:167    .text:00000000000000b8 .L0 
     /tmp/cc7PtqJu.s:168    .text:00000000000000b8 .L0 
     /tmp/cc7PtqJu.s:170    .text:00000000000000bc .L0 
     /tmp/cc7PtqJu.s:172    .text:00000000000000bc .L0 
     /tmp/cc7PtqJu.s:173    .text:00000000000000bc .L0 
     /tmp/cc7PtqJu.s:177    .text:00000000000000c8 .L0 
     /tmp/cc7PtqJu.s:178    .text:00000000000000c8 .L0 
     /tmp/cc7PtqJu.s:180    .text:00000000000000cc .L0 
     /tmp/cc7PtqJu.s:182    .text:00000000000000d0 .L0 
     /tmp/cc7PtqJu.s:184    .text:00000000000000d4 .L0 
     /tmp/cc7PtqJu.s:189    .text:00000000000000dc .L0 
     /tmp/cc7PtqJu.s:190    .text:00000000000000e0 .L0 
     /tmp/cc7PtqJu.s:191    .text:00000000000000e0 .L0 
     /tmp/cc7PtqJu.s:193    .text:00000000000000e4 .L0 
     /tmp/cc7PtqJu.s:194    .text:00000000000000e4 .L0 
     /tmp/cc7PtqJu.s:196    .text:00000000000000e8 .L0 
     /tmp/cc7PtqJu.s:198    .text:00000000000000ec .L0 
     /tmp/cc7PtqJu.s:201    .text:00000000000000f0 .L0 
     /tmp/cc7PtqJu.s:205    .text:00000000000000f4 .L0 
     /tmp/cc7PtqJu.s:212    .text:00000000000000f8 .L0 
     /tmp/cc7PtqJu.s:213    .text:00000000000000f8 .L0 
     /tmp/cc7PtqJu.s:214    .text:00000000000000f8 .L0 
     /tmp/cc7PtqJu.s:221    .text:00000000000000fc .L0 
     /tmp/cc7PtqJu.s:222    .text:00000000000000fc .L0 
     /tmp/cc7PtqJu.s:223    .text:00000000000000fc .L0 
     /tmp/cc7PtqJu.s:224    .text:00000000000000fc .L0 
     /tmp/cc7PtqJu.s:229    .text:0000000000000108 .L0 
     /tmp/cc7PtqJu.s:230    .text:0000000000000108 .L0 
     /tmp/cc7PtqJu.s:232    .text:000000000000010c .L0 
     /tmp/cc7PtqJu.s:233    .text:000000000000010c .L0 
     /tmp/cc7PtqJu.s:235    .text:0000000000000110 .L0 
     /tmp/cc7PtqJu.s:236    .text:0000000000000110 .L0 
     /tmp/cc7PtqJu.s:238    .text:0000000000000114 .L0 
     /tmp/cc7PtqJu.s:242    .text:0000000000000118 .L0 
     /tmp/cc7PtqJu.s:244    .text:000000000000011c .L0 
     /tmp/cc7PtqJu.s:247    .text:0000000000000120 .L0 
     /tmp/cc7PtqJu.s:249    .text:0000000000000124 .L0 
     /tmp/cc7PtqJu.s:250    .text:0000000000000124 .L0 
     /tmp/cc7PtqJu.s:256    .text:0000000000000128 .L0 
     /tmp/cc7PtqJu.s:257    .text:0000000000000128 .L0 
     /tmp/cc7PtqJu.s:260    .text:0000000000000130 .L0 
     /tmp/cc7PtqJu.s:266    .text:0000000000000134 .L0 
     /tmp/cc7PtqJu.s:267    .text:0000000000000134 .L0 
     /tmp/cc7PtqJu.s:271    .text:000000000000013c .L0 
     /tmp/cc7PtqJu.s:277    .text:000000000000013c _ZN3Sem10sem_signalEv
     /tmp/cc7PtqJu.s:280    .text:000000000000013c .L0 
GAS LISTING /tmp/cc7PtqJu.s 			page 15


     /tmp/cc7PtqJu.s:282    .text:000000000000013c .L0 
     /tmp/cc7PtqJu.s:283    .text:000000000000013c .L0 
     /tmp/cc7PtqJu.s:284    .text:000000000000013c .L0 
     /tmp/cc7PtqJu.s:286    .text:0000000000000140 .L0 
     /tmp/cc7PtqJu.s:289    .text:0000000000000148 .L0 
     /tmp/cc7PtqJu.s:298    .text:0000000000000154 .L0 
     /tmp/cc7PtqJu.s:299    .text:0000000000000154 .L0 
     /tmp/cc7PtqJu.s:301    .text:0000000000000158 .L0 
     /tmp/cc7PtqJu.s:303    .text:000000000000015c .L0 
     /tmp/cc7PtqJu.s:304    .text:000000000000015c .L0 
     /tmp/cc7PtqJu.s:309    .text:0000000000000160 .L0 
     /tmp/cc7PtqJu.s:311    .text:0000000000000164 .L0 
     /tmp/cc7PtqJu.s:312    .text:0000000000000168 .L0 
     /tmp/cc7PtqJu.s:316    .text:0000000000000174 .L0 
     /tmp/cc7PtqJu.s:317    .text:0000000000000174 .L0 
     /tmp/cc7PtqJu.s:318    .text:0000000000000174 .L0 
     /tmp/cc7PtqJu.s:320    .text:0000000000000178 .L0 
     /tmp/cc7PtqJu.s:323    .text:0000000000000178 .L0 
     /tmp/cc7PtqJu.s:324    .text:0000000000000178 .L0 
     /tmp/cc7PtqJu.s:327    .text:0000000000000178 .L0 
     /tmp/cc7PtqJu.s:328    .text:0000000000000178 .L0 
     /tmp/cc7PtqJu.s:329    .text:0000000000000178 .L0 
     /tmp/cc7PtqJu.s:337    .text:0000000000000180 .L0 
     /tmp/cc7PtqJu.s:338    .text:0000000000000180 .L0 
     /tmp/cc7PtqJu.s:339    .text:0000000000000180 .L0 
     /tmp/cc7PtqJu.s:341    .text:0000000000000184 .L0 
     /tmp/cc7PtqJu.s:343    .text:0000000000000188 .L0 
     /tmp/cc7PtqJu.s:344    .text:0000000000000188 .L0 
     /tmp/cc7PtqJu.s:347    .text:000000000000018c .L0 
     /tmp/cc7PtqJu.s:348    .text:000000000000018c .L0 
     /tmp/cc7PtqJu.s:349    .text:000000000000018c .L0 
     /tmp/cc7PtqJu.s:351    .text:0000000000000190 .L0 
     /tmp/cc7PtqJu.s:353    .text:0000000000000194 .L0 
     /tmp/cc7PtqJu.s:354    .text:0000000000000194 .L0 
     /tmp/cc7PtqJu.s:359    .text:00000000000001a0 .L0 
     /tmp/cc7PtqJu.s:360    .text:00000000000001a0 .L0 
     /tmp/cc7PtqJu.s:364    .text:00000000000001a0 .L0 
     /tmp/cc7PtqJu.s:365    .text:00000000000001a0 .L0 
     /tmp/cc7PtqJu.s:369    .text:00000000000001ac .L0 
     /tmp/cc7PtqJu.s:370    .text:00000000000001b0 .L0 
     /tmp/cc7PtqJu.s:371    .text:00000000000001b0 .L0 
     /tmp/cc7PtqJu.s:373    .text:00000000000001b4 .L0 
     /tmp/cc7PtqJu.s:374    .text:00000000000001b4 .L0 
     /tmp/cc7PtqJu.s:376    .text:00000000000001b8 .L0 
     /tmp/cc7PtqJu.s:378    .text:00000000000001bc .L0 
     /tmp/cc7PtqJu.s:382    .text:00000000000001c0 .L0 
     /tmp/cc7PtqJu.s:386    .text:00000000000001c0 .L0 
     /tmp/cc7PtqJu.s:390    .text:00000000000001c8 .L0 
     /tmp/cc7PtqJu.s:396    .text:00000000000001c8 _ZN3Sem11sem_trywaitEv
     /tmp/cc7PtqJu.s:399    .text:00000000000001c8 .L0 
     /tmp/cc7PtqJu.s:401    .text:00000000000001c8 .L0 
     /tmp/cc7PtqJu.s:402    .text:00000000000001cc .L0 
     /tmp/cc7PtqJu.s:404    .text:00000000000001d0 .L0 
     /tmp/cc7PtqJu.s:406    .text:00000000000001d4 .L0 
     /tmp/cc7PtqJu.s:408    .text:00000000000001d4 .L0 
     /tmp/cc7PtqJu.s:410    .text:00000000000001d8 .L0 
     /tmp/cc7PtqJu.s:413    .text:00000000000001e0 .L0 
GAS LISTING /tmp/cc7PtqJu.s 			page 16


     /tmp/cc7PtqJu.s:416    .text:00000000000001e8 .L0 
     /tmp/cc7PtqJu.s:420    .text:00000000000001ec .L0 
     /tmp/cc7PtqJu.s:421    .text:00000000000001f0 .L0 
     /tmp/cc7PtqJu.s:422    .text:00000000000001f0 .L0 
     /tmp/cc7PtqJu.s:423    .text:00000000000001f0 .L0 
     /tmp/cc7PtqJu.s:425    .text:00000000000001f4 .L0 
     /tmp/cc7PtqJu.s:429    .text:00000000000001f8 .L0 
     /tmp/cc7PtqJu.s:431    .text:00000000000001f8 .L0 
     /tmp/cc7PtqJu.s:432    .text:00000000000001f8 .L0 
     /tmp/cc7PtqJu.s:434    .text:00000000000001fc .L0 
     /tmp/cc7PtqJu.s:435    .text:00000000000001fc .L0 
     /tmp/cc7PtqJu.s:438    .text:0000000000000204 .L0 
     /tmp/cc7PtqJu.s:445    .text:0000000000000204 .L0 
     /tmp/cc7PtqJu.s:173    .text:00000000000000bc .L0 
     /tmp/cc7PtqJu.s:133    .text:000000000000008c .L3
     /tmp/cc7PtqJu.s:86     .text:000000000000005c .L5
     /tmp/cc7PtqJu.s:204    .text:00000000000000f4 .L13
     /tmp/cc7PtqJu.s:262    .text:0000000000000134 .L9
     /tmp/cc7PtqJu.s:240    .text:0000000000000118 .L10
     /tmp/cc7PtqJu.s:187    .text:00000000000000dc .L7
     /tmp/cc7PtqJu.s:252    .text:0000000000000128 .L11
     /tmp/cc7PtqJu.s:293    .text:0000000000000154 .L22
     /tmp/cc7PtqJu.s:291    .text:0000000000000150 .L19
     /tmp/cc7PtqJu.s:381    .text:00000000000001c0 .L17
     /tmp/cc7PtqJu.s:361    .text:00000000000001a0 .L16
     /tmp/cc7PtqJu.s:428    .text:00000000000001f8 .L27
     /tmp/cc7PtqJu.s:418    .text:00000000000001ec .L24
     /tmp/cc7PtqJu.s:1483   .debug_abbrev:0000000000000000 .Ldebug_abbrev0
     /tmp/cc7PtqJu.s:2891   .debug_str:0000000000000456 .LASF79
     /tmp/cc7PtqJu.s:2791   .debug_str:00000000000001bb .LASF80
     /tmp/cc7PtqJu.s:2779   .debug_str:000000000000013f .LASF81
     /tmp/cc7PtqJu.s:5      .text:0000000000000000 .Ltext0
     /tmp/cc7PtqJu.s:441    .text:0000000000000204 .Letext0
     /tmp/cc7PtqJu.s:2725   .debug_line:0000000000000000 .Ldebug_line0
     /tmp/cc7PtqJu.s:2839   .debug_str:0000000000000323 .LASF0
     /tmp/cc7PtqJu.s:2847   .debug_str:000000000000034d .LASF1
     /tmp/cc7PtqJu.s:2827   .debug_str:00000000000002b7 .LASF2
     /tmp/cc7PtqJu.s:2799   .debug_str:0000000000000211 .LASF4
     /tmp/cc7PtqJu.s:2879   .debug_str:00000000000003f9 .LASF3
     /tmp/cc7PtqJu.s:2735   .debug_str:000000000000002a .LASF5
     /tmp/cc7PtqJu.s:2849   .debug_str:0000000000000360 .LASF6
     /tmp/cc7PtqJu.s:2837   .debug_str:0000000000000310 .LASF7
     /tmp/cc7PtqJu.s:2901   .debug_str:0000000000000560 .LASF8
     /tmp/cc7PtqJu.s:2785   .debug_str:000000000000017e .LASF9
     /tmp/cc7PtqJu.s:2859   .debug_str:00000000000003a5 .LASF10
     /tmp/cc7PtqJu.s:2895   .debug_str:000000000000052e .LASF11
     /tmp/cc7PtqJu.s:2737   .debug_str:0000000000000031 .LASF12
     /tmp/cc7PtqJu.s:2729   .debug_str:0000000000000008 .LASF13
     /tmp/cc7PtqJu.s:2743   .debug_str:000000000000006d .LASF14
     /tmp/cc7PtqJu.s:2873   .debug_str:00000000000003d8 .LASF15
     /tmp/cc7PtqJu.s:2757   .debug_str:00000000000000af .LASF16
     /tmp/cc7PtqJu.s:2797   .debug_str:000000000000020c .LASF19
     /tmp/cc7PtqJu.s:2875   .debug_str:00000000000003ee .LASF82
     /tmp/cc7PtqJu.s:2871   .debug_str:00000000000003d3 .LASF17
     /tmp/cc7PtqJu.s:2911   .debug_str:00000000000005a9 .LASF18
     /tmp/cc7PtqJu.s:2819   .debug_str:0000000000000286 .LASF39
     /tmp/cc7PtqJu.s:2761   .debug_str:00000000000000d1 .LASF53
GAS LISTING /tmp/cc7PtqJu.s 			page 17


     /tmp/cc7PtqJu.s:2767   .debug_str:0000000000000101 .LASF21
     /tmp/cc7PtqJu.s:2745   .debug_str:0000000000000079 .LASF20
     /tmp/cc7PtqJu.s:2807   .debug_str:0000000000000239 .LASF22
     /tmp/cc7PtqJu.s:2811   .debug_str:000000000000025e .LASF23
     /tmp/cc7PtqJu.s:2851   .debug_str:0000000000000373 .LASF24
     /tmp/cc7PtqJu.s:2755   .debug_str:00000000000000a6 .LASF27
     /tmp/cc7PtqJu.s:2885   .debug_str:0000000000000422 .LASF29
     /tmp/cc7PtqJu.s:2907   .debug_str:0000000000000594 .LASF25
     /tmp/cc7PtqJu.s:2835   .debug_str:00000000000002fb .LASF26
     /tmp/cc7PtqJu.s:2733   .debug_str:0000000000000022 .LASF83
     /tmp/cc7PtqJu.s:2855   .debug_str:000000000000038f .LASF28
     /tmp/cc7PtqJu.s:2897   .debug_str:000000000000053d .LASF30
     /tmp/cc7PtqJu.s:2829   .debug_str:00000000000002c5 .LASF31
     /tmp/cc7PtqJu.s:2793   .debug_str:00000000000001cd .LASF32
     /tmp/cc7PtqJu.s:2731   .debug_str:0000000000000018 .LASF33
     /tmp/cc7PtqJu.s:2821   .debug_str:000000000000028b .LASF34
     /tmp/cc7PtqJu.s:2823   .debug_str:00000000000002a0 .LASF35
     /tmp/cc7PtqJu.s:2893   .debug_str:000000000000051a .LASF36
     /tmp/cc7PtqJu.s:2809   .debug_str:0000000000000251 .LASF37
     /tmp/cc7PtqJu.s:2831   .debug_str:00000000000002d1 .LASF38
     /tmp/cc7PtqJu.s:2869   .debug_str:00000000000003ce .LASF40
     /tmp/cc7PtqJu.s:2771   .debug_str:0000000000000116 .LASF84
     /tmp/cc7PtqJu.s:2813   .debug_str:0000000000000266 .LASF41
     /tmp/cc7PtqJu.s:2789   .debug_str:00000000000001a2 .LASF43
     /tmp/cc7PtqJu.s:2909   .debug_str:000000000000059e .LASF42
     /tmp/cc7PtqJu.s:2787   .debug_str:000000000000018c .LASF44
     /tmp/cc7PtqJu.s:2905   .debug_str:000000000000057e .LASF85
     /tmp/cc7PtqJu.s:2841   .debug_str:0000000000000330 .LASF45
     /tmp/cc7PtqJu.s:2775   .debug_str:0000000000000127 .LASF46
     /tmp/cc7PtqJu.s:2805   .debug_str:0000000000000234 .LASF47
     /tmp/cc7PtqJu.s:2747   .debug_str:0000000000000082 .LASF48
     /tmp/cc7PtqJu.s:2843   .debug_str:0000000000000339 .LASF49
     /tmp/cc7PtqJu.s:2751   .debug_str:0000000000000091 .LASF50
     /tmp/cc7PtqJu.s:2803   .debug_str:000000000000022b .LASF51
     /tmp/cc7PtqJu.s:2903   .debug_str:0000000000000570 .LASF86
     /tmp/cc7PtqJu.s:2795   .debug_str:00000000000001e4 .LASF87
     /tmp/cc7PtqJu.s:2857   .debug_str:000000000000039b .LASF52
     /tmp/cc7PtqJu.s:2765   .debug_str:00000000000000ed .LASF88
     /tmp/cc7PtqJu.s:2741   .debug_str:0000000000000055 .LASF89
     /tmp/cc7PtqJu.s:2815   .debug_str:0000000000000274 .LASF54
     /tmp/cc7PtqJu.s:2777   .debug_str:000000000000013a .LASF55
     /tmp/cc7PtqJu.s:2853   .debug_str:000000000000038a .LASF56
     /tmp/cc7PtqJu.s:2773   .debug_str:000000000000011e .LASF57
     /tmp/cc7PtqJu.s:2783   .debug_str:000000000000016b .LASF58
     /tmp/cc7PtqJu.s:2887   .debug_str:0000000000000436 .LASF59
     /tmp/cc7PtqJu.s:2739   .debug_str:0000000000000041 .LASF60
     /tmp/cc7PtqJu.s:2749   .debug_str:0000000000000088 .LASF61
     /tmp/cc7PtqJu.s:2801   .debug_str:0000000000000218 .LASF62
     /tmp/cc7PtqJu.s:2899   .debug_str:0000000000000555 .LASF63
     /tmp/cc7PtqJu.s:2889   .debug_str:0000000000000440 .LASF64
     /tmp/cc7PtqJu.s:2817   .debug_str:000000000000027a .LASF65
     /tmp/cc7PtqJu.s:2763   .debug_str:00000000000000d6 .LASF66
     /tmp/cc7PtqJu.s:2727   .debug_str:0000000000000000 .LASF67
     /tmp/cc7PtqJu.s:2759   .debug_str:00000000000000c5 .LASF90
     /tmp/cc7PtqJu.s:397    .text:00000000000001c8 .LFB21
     /tmp/cc7PtqJu.s:439    .text:0000000000000204 .LFE21
     /tmp/cc7PtqJu.s:2865   .debug_str:00000000000003c2 .LASF68
GAS LISTING /tmp/cc7PtqJu.s 			page 18


     /tmp/cc7PtqJu.s:2384   .debug_loc:0000000000000000 .LLST25
     /tmp/cc7PtqJu.s:278    .text:000000000000013c .LFB20
     /tmp/cc7PtqJu.s:391    .text:00000000000001c8 .LFE20
     /tmp/cc7PtqJu.s:2409   .debug_loc:0000000000000062 .LLST18
     /tmp/cc7PtqJu.s:295    .text:0000000000000154 .LBB44
     /tmp/cc7PtqJu.s:307    .text:0000000000000160 .LBE44
     /tmp/cc7PtqJu.s:2427   .debug_loc:00000000000000ae .LLST19
     /tmp/cc7PtqJu.s:325    .text:0000000000000178 .LBB46
     /tmp/cc7PtqJu.s:333    .text:0000000000000180 .LBE46
     /tmp/cc7PtqJu.s:2436   .debug_loc:00000000000000d3 .LLST20
     /tmp/cc7PtqJu.s:2444   .debug_loc:00000000000000f7 .LLST21
     /tmp/cc7PtqJu.s:335    .text:0000000000000180 .LBB48
     /tmp/cc7PtqJu.s:2711   .debug_ranges:0000000000000000 .Ldebug_ranges0
     /tmp/cc7PtqJu.s:2451   .debug_loc:000000000000011a .LLST22
     /tmp/cc7PtqJu.s:2475   .debug_loc:000000000000016c .LLST23
     /tmp/cc7PtqJu.s:2482   .debug_loc:000000000000018f .LLST24
     /tmp/cc7PtqJu.s:357    .text:00000000000001a0 .LVL35
     /tmp/cc7PtqJu.s:367    .text:00000000000001ac .LVL36
     /tmp/cc7PtqJu.s:155    .text:00000000000000a4 .LFB19
     /tmp/cc7PtqJu.s:272    .text:000000000000013c .LFE19
     /tmp/cc7PtqJu.s:2489   .debug_loc:00000000000001b2 .LLST10
     /tmp/cc7PtqJu.s:2861   .debug_str:00000000000003b4 .LASF69
     /tmp/cc7PtqJu.s:2511   .debug_loc:0000000000000211 .LLST11
     /tmp/cc7PtqJu.s:209    .text:00000000000000f8 .LBB38
     /tmp/cc7PtqJu.s:217    .text:00000000000000fc .LBE38
     /tmp/cc7PtqJu.s:2522   .debug_loc:0000000000000247 .LLST12
     /tmp/cc7PtqJu.s:2530   .debug_loc:000000000000026b .LLST13
     /tmp/cc7PtqJu.s:219    .text:00000000000000fc .LBB40
     /tmp/cc7PtqJu.s:2537   .debug_loc:000000000000028e .LLST14
     /tmp/cc7PtqJu.s:2548   .debug_loc:00000000000002c4 .LLST15
     /tmp/cc7PtqJu.s:2563   .debug_loc:00000000000002fe .LLST16
     /tmp/cc7PtqJu.s:2584   .debug_loc:000000000000035c .LLST17
     /tmp/cc7PtqJu.s:227    .text:0000000000000108 .LVL22
     /tmp/cc7PtqJu.s:258    .text:0000000000000130 .LVL26
     /tmp/cc7PtqJu.s:67     .text:0000000000000040 .LFB18
     /tmp/cc7PtqJu.s:149    .text:00000000000000a4 .LFE18
     /tmp/cc7PtqJu.s:2595   .debug_loc:0000000000000392 .LLST4
     /tmp/cc7PtqJu.s:2613   .debug_loc:00000000000003de .LLST5
     /tmp/cc7PtqJu.s:89     .text:000000000000005c .LBB30
     /tmp/cc7PtqJu.s:101    .text:0000000000000068 .LBE30
     /tmp/cc7PtqJu.s:2620   .debug_loc:0000000000000401 .LLST6
     /tmp/cc7PtqJu.s:106    .text:000000000000006c .LBB32
     /tmp/cc7PtqJu.s:124    .text:000000000000007c .LBE32
     /tmp/cc7PtqJu.s:2629   .debug_loc:0000000000000426 .LLST7
     /tmp/cc7PtqJu.s:2638   .debug_loc:000000000000044b .LLST8
     /tmp/cc7PtqJu.s:2645   .debug_loc:000000000000046e .LLST9
     /tmp/cc7PtqJu.s:119    .text:000000000000007c .LVL10
     /tmp/cc7PtqJu.s:129    .text:0000000000000088 .LVL11
     /tmp/cc7PtqJu.s:10     .text:0000000000000000 .LFB17
     /tmp/cc7PtqJu.s:61     .text:0000000000000040 .LFE17
     /tmp/cc7PtqJu.s:2657   .debug_loc:00000000000004a5 .LLST0
     /tmp/cc7PtqJu.s:32     .text:0000000000000024 .LBB26
     /tmp/cc7PtqJu.s:47     .text:000000000000002c .LBE26
     /tmp/cc7PtqJu.s:2675   .debug_loc:00000000000004f1 .LLST1
     /tmp/cc7PtqJu.s:2682   .debug_loc:0000000000000514 .LLST2
     /tmp/cc7PtqJu.s:38     .text:0000000000000028 .LBB28
     /tmp/cc7PtqJu.s:45     .text:000000000000002c .LBE28
GAS LISTING /tmp/cc7PtqJu.s 			page 19


     /tmp/cc7PtqJu.s:2689   .debug_loc:0000000000000537 .LLST3
     /tmp/cc7PtqJu.s:31     .text:0000000000000024 .LVL2
     /tmp/cc7PtqJu.s:2845   .debug_str:0000000000000341 .LASF73
     /tmp/cc7PtqJu.s:2867   .debug_str:00000000000003c7 .LASF70
     /tmp/cc7PtqJu.s:2769   .debug_str:000000000000010e .LASF71
     /tmp/cc7PtqJu.s:2833   .debug_str:00000000000002f3 .LASF72
     /tmp/cc7PtqJu.s:2825   .debug_str:00000000000002aa .LASF74
     /tmp/cc7PtqJu.s:2781   .debug_str:000000000000015d .LASF75
     /tmp/cc7PtqJu.s:2863   .debug_str:00000000000003b9 .LASF77
     /tmp/cc7PtqJu.s:2753   .debug_str:0000000000000098 .LASF76
     /tmp/cc7PtqJu.s:2881   .debug_str:000000000000040b .LASF78
     /tmp/cc7PtqJu.s:2877   .debug_str:00000000000003f3 .LASF91
     /tmp/cc7PtqJu.s:2883   .debug_str:0000000000000415 .LASF92
     /tmp/cc7PtqJu.s:400    .text:00000000000001c8 .LVL38
     /tmp/cc7PtqJu.s:417    .text:00000000000001ec .LVL39
     /tmp/cc7PtqJu.s:427    .text:00000000000001f8 .LVL40
     /tmp/cc7PtqJu.s:436    .text:0000000000000200 .LVL41
     /tmp/cc7PtqJu.s:281    .text:000000000000013c .LVL28
     /tmp/cc7PtqJu.s:355    .text:0000000000000198 .LVL34
     /tmp/cc7PtqJu.s:380    .text:00000000000001c0 .LVL37
     /tmp/cc7PtqJu.s:294    .text:0000000000000154 .LVL29
     /tmp/cc7PtqJu.s:305    .text:0000000000000160 .LVL30
     /tmp/cc7PtqJu.s:322    .text:0000000000000178 .LVL31
     /tmp/cc7PtqJu.s:331    .text:0000000000000180 .LVL32
     /tmp/cc7PtqJu.s:345    .text:000000000000018c .LVL33
     /tmp/cc7PtqJu.s:158    .text:00000000000000a4 .LVL14
     /tmp/cc7PtqJu.s:186    .text:00000000000000dc .LVL16
     /tmp/cc7PtqJu.s:203    .text:00000000000000f4 .LVL18
     /tmp/cc7PtqJu.s:225    .text:0000000000000100 .LVL21
     /tmp/cc7PtqJu.s:175    .text:00000000000000c8 .LVL15
     /tmp/cc7PtqJu.s:199    .text:00000000000000ec .LVL17
     /tmp/cc7PtqJu.s:208    .text:00000000000000f8 .LVL19
     /tmp/cc7PtqJu.s:215    .text:00000000000000fc .LVL20
     /tmp/cc7PtqJu.s:251    .text:0000000000000128 .LVL25
     /tmp/cc7PtqJu.s:261    .text:0000000000000134 .LVL27
     /tmp/cc7PtqJu.s:239    .text:0000000000000118 .LVL23
     /tmp/cc7PtqJu.s:245    .text:0000000000000120 .LVL24
     /tmp/cc7PtqJu.s:70     .text:0000000000000040 .LVL6
     /tmp/cc7PtqJu.s:85     .text:000000000000005c .LVL7
     /tmp/cc7PtqJu.s:144    .text:000000000000009c .LVL13
     /tmp/cc7PtqJu.s:132    .text:000000000000008c .LVL12
     /tmp/cc7PtqJu.s:99     .text:0000000000000068 .LVL8
     /tmp/cc7PtqJu.s:105    .text:000000000000006c .LVL9
     /tmp/cc7PtqJu.s:14     .text:0000000000000000 .LVL0
     /tmp/cc7PtqJu.s:29     .text:000000000000001c .LVL1
     /tmp/cc7PtqJu.s:56     .text:0000000000000038 .LVL5
     /tmp/cc7PtqJu.s:43     .text:000000000000002c .LVL4
     /tmp/cc7PtqJu.s:37     .text:0000000000000028 .LVL3
     /tmp/cc7PtqJu.s:446    .debug_info:0000000000000000 .Ldebug_info0
     /tmp/cc7PtqJu.s:254    .text:0000000000000128 .LBE40
     /tmp/cc7PtqJu.s:263    .text:0000000000000134 .LBB43
     /tmp/cc7PtqJu.s:270    .text:000000000000013c .LBE43
     /tmp/cc7PtqJu.s:363    .text:00000000000001a0 .LBE48
     /tmp/cc7PtqJu.s:383    .text:00000000000001c0 .LBB51
     /tmp/cc7PtqJu.s:389    .text:00000000000001c8 .LBE51

UNDEFINED SYMBOLS
GAS LISTING /tmp/cc7PtqJu.s 			page 20


_Znwm
_Z8mem_freePv
_ZN9Scheduler3putEP3TCB
_ZN3TCB7runningE
_Z9mem_allocm
_ZN3TCB8dispatchEv
