GAS LISTING /tmp/ccPoNFsz.s 			page 1


   1              		.file	"syscall_cpp.cpp"
   2              		.option pic
   3              		.option norelax
   4              		.text
   5              	.Ltext0:
   6              		.section	.text._ZN6Thread3runEv,"axG",@progbits,_ZN6Thread3runEv,comdat
   7              		.align	2
   8              		.weak	_ZN6Thread3runEv
  10              	_ZN6Thread3runEv:
  11              	.LFB0:
  12              		.file 1 "src/../h/syscall_cpp.hpp"
   1:src/../h/syscall_cpp.hpp **** //
   2:src/../h/syscall_cpp.hpp **** // Created by os on 8/25/24.
   3:src/../h/syscall_cpp.hpp **** //
   4:src/../h/syscall_cpp.hpp **** 
   5:src/../h/syscall_cpp.hpp **** #ifndef PROJECT_BASE_SYSCALL_CPP_HPP
   6:src/../h/syscall_cpp.hpp **** #define PROJECT_BASE_SYSCALL_CPP_HPP
   7:src/../h/syscall_cpp.hpp **** 
   8:src/../h/syscall_cpp.hpp **** #include "syscall_c.hpp"
   9:src/../h/syscall_cpp.hpp **** 
  10:src/../h/syscall_cpp.hpp **** void* operator new (size_t);
  11:src/../h/syscall_cpp.hpp **** void operator delete (void*) noexcept;
  12:src/../h/syscall_cpp.hpp **** 
  13:src/../h/syscall_cpp.hpp **** class Thread {
  14:src/../h/syscall_cpp.hpp **** public:
  15:src/../h/syscall_cpp.hpp ****     Thread (void (*body)(void*), void* arg);
  16:src/../h/syscall_cpp.hpp ****     virtual ~Thread();
  17:src/../h/syscall_cpp.hpp **** 
  18:src/../h/syscall_cpp.hpp ****     int start();
  19:src/../h/syscall_cpp.hpp **** 
  20:src/../h/syscall_cpp.hpp ****     static void dispatch ();
  21:src/../h/syscall_cpp.hpp **** 
  22:src/../h/syscall_cpp.hpp **** protected:
  23:src/../h/syscall_cpp.hpp **** 
  24:src/../h/syscall_cpp.hpp ****     Thread();
  25:src/../h/syscall_cpp.hpp ****     virtual void run() {};
  13              		.loc 1 25 18
  14              		.cfi_startproc
  15              	.LVL0:
  16 0000 130101FF 		addi	sp,sp,-16
  17              		.cfi_def_cfa_offset 16
  18 0004 23348100 		sd	s0,8(sp)
  19              		.cfi_offset 8, -8
  20 0008 13040101 		addi	s0,sp,16
  21              		.cfi_def_cfa 8, 0
  22              		.loc 1 25 25 is_stmt 0
  23 000c 03348100 		ld	s0,8(sp)
  24              		.cfi_restore 8
  25              		.cfi_def_cfa 2, 16
  26 0010 13010101 		addi	sp,sp,16
  27              		.cfi_def_cfa_offset 0
  28 0014 67800000 		jr	ra
  29              		.cfi_endproc
  30              	.LFE0:
  32              		.section	.text._ZN6Thread10runWrapperEPv,"axG",@progbits,_ZN6Thread10runWrapperEPv,comdat
  33              		.align	2
  34              		.weak	_ZN6Thread10runWrapperEPv
GAS LISTING /tmp/ccPoNFsz.s 			page 2


  36              	_ZN6Thread10runWrapperEPv:
  37              	.LFB1:
  26:src/../h/syscall_cpp.hpp **** 
  27:src/../h/syscall_cpp.hpp **** private:
  28:src/../h/syscall_cpp.hpp ****     static void runWrapper(void* thread) {
  38              		.loc 1 28 17 is_stmt 1
  39              		.cfi_startproc
  40              	.LVL1:
  29:src/../h/syscall_cpp.hpp ****         if(thread) {
  41              		.loc 1 29 9
  42 0000 63080502 		beqz	a0,.L6
  28:src/../h/syscall_cpp.hpp ****         if(thread) {
  43              		.loc 1 28 17 is_stmt 0
  44 0004 130101FF 		addi	sp,sp,-16
  45              		.cfi_def_cfa_offset 16
  46 0008 23341100 		sd	ra,8(sp)
  47 000c 23308100 		sd	s0,0(sp)
  48              		.cfi_offset 1, -8
  49              		.cfi_offset 8, -16
  50 0010 13040101 		addi	s0,sp,16
  51              		.cfi_def_cfa 8, 0
  30:src/../h/syscall_cpp.hpp ****             ((Thread*)thread)->run();
  52              		.loc 1 30 13 is_stmt 1
  53              		.loc 1 30 36 is_stmt 0
  54 0014 83370500 		ld	a5,0(a0)
  55 0018 83B70701 		ld	a5,16(a5)
  56              		.loc 1 30 35
  57 001c E7800700 		jalr	a5
  58              	.LVL2:
  31:src/../h/syscall_cpp.hpp ****         }
  32:src/../h/syscall_cpp.hpp ****     }
  59              		.loc 1 32 5
  60 0020 83308100 		ld	ra,8(sp)
  61              		.cfi_restore 1
  62 0024 03340100 		ld	s0,0(sp)
  63              		.cfi_restore 8
  64              		.cfi_def_cfa 2, 16
  65 0028 13010101 		addi	sp,sp,16
  66              		.cfi_def_cfa_offset 0
  67 002c 67800000 		jr	ra
  68              	.LVL3:
  69              	.L6:
  70 0030 67800000 		ret
  71              		.cfi_endproc
  72              	.LFE1:
  74              		.text
  75              		.align	2
  76              		.globl	_ZN6ThreadD2Ev
  78              	_ZN6ThreadD2Ev:
  79              	.LFB10:
  80              		.file 2 "src/syscall_cpp.cpp"
   1:src/syscall_cpp.cpp **** //
   2:src/syscall_cpp.cpp **** // Created by os on 8/25/24.
   3:src/syscall_cpp.cpp **** //
   4:src/syscall_cpp.cpp **** 
   5:src/syscall_cpp.cpp **** #include "../h/syscall_cpp.hpp"
   6:src/syscall_cpp.cpp **** 
GAS LISTING /tmp/ccPoNFsz.s 			page 3


   7:src/syscall_cpp.cpp **** 
   8:src/syscall_cpp.cpp **** void *operator new(size_t n)
   9:src/syscall_cpp.cpp **** {
  10:src/syscall_cpp.cpp ****     return mem_alloc(n);
  11:src/syscall_cpp.cpp **** }
  12:src/syscall_cpp.cpp **** 
  13:src/syscall_cpp.cpp **** void *operator new[](size_t n)
  14:src/syscall_cpp.cpp **** {
  15:src/syscall_cpp.cpp ****     return mem_alloc(n);
  16:src/syscall_cpp.cpp **** }
  17:src/syscall_cpp.cpp **** 
  18:src/syscall_cpp.cpp **** void operator delete(void *p) noexcept
  19:src/syscall_cpp.cpp **** {
  20:src/syscall_cpp.cpp ****     mem_free(p);
  21:src/syscall_cpp.cpp **** }
  22:src/syscall_cpp.cpp **** 
  23:src/syscall_cpp.cpp **** void operator delete[](void *p) noexcept
  24:src/syscall_cpp.cpp **** {
  25:src/syscall_cpp.cpp ****     mem_free(p);
  26:src/syscall_cpp.cpp **** }
  27:src/syscall_cpp.cpp **** 
  28:src/syscall_cpp.cpp **** Thread::Thread(void (*body)(void *), void *arg) : body(body), arg(arg){
  29:src/syscall_cpp.cpp **** }
  30:src/syscall_cpp.cpp **** 
  31:src/syscall_cpp.cpp **** 
  32:src/syscall_cpp.cpp **** Thread::~Thread(){
  81              		.loc 2 32 1 is_stmt 1
  82              		.cfi_startproc
  83              	.LVL4:
  84 0000 130101FF 		addi	sp,sp,-16
  85              		.cfi_def_cfa_offset 16
  86 0004 23348100 		sd	s0,8(sp)
  87              		.cfi_offset 8, -8
  88 0008 13040101 		addi	s0,sp,16
  89              		.cfi_def_cfa 8, 0
  33:src/syscall_cpp.cpp **** 
  34:src/syscall_cpp.cpp **** }
  90              		.loc 2 34 1 is_stmt 0
  91 000c 03348100 		ld	s0,8(sp)
  92              		.cfi_restore 8
  93              		.cfi_def_cfa 2, 16
  94 0010 13010101 		addi	sp,sp,16
  95              		.cfi_def_cfa_offset 0
  96 0014 67800000 		jr	ra
  97              		.cfi_endproc
  98              	.LFE10:
 100              		.globl	_ZN6ThreadD1Ev
 101              		.set	_ZN6ThreadD1Ev,_ZN6ThreadD2Ev
 102              		.align	2
 103              		.globl	_ZN9SemaphoreD2Ev
 105              	_ZN9SemaphoreD2Ev:
 106              	.LFB22:
  35:src/syscall_cpp.cpp **** 
  36:src/syscall_cpp.cpp **** int Thread::start() {
  37:src/syscall_cpp.cpp ****     return thread_create(&myHandle, body, arg);
  38:src/syscall_cpp.cpp **** }
  39:src/syscall_cpp.cpp **** 
GAS LISTING /tmp/ccPoNFsz.s 			page 4


  40:src/syscall_cpp.cpp **** void Thread::dispatch() {
  41:src/syscall_cpp.cpp ****     thread_dispatch();
  42:src/syscall_cpp.cpp **** }
  43:src/syscall_cpp.cpp **** 
  44:src/syscall_cpp.cpp **** Thread::Thread() : body(&runWrapper), arg(this){
  45:src/syscall_cpp.cpp **** 
  46:src/syscall_cpp.cpp **** }
  47:src/syscall_cpp.cpp **** 
  48:src/syscall_cpp.cpp **** Semaphore::Semaphore(unsigned int init) {
  49:src/syscall_cpp.cpp ****     sem_open(&myHandle, init);
  50:src/syscall_cpp.cpp **** }
  51:src/syscall_cpp.cpp **** 
  52:src/syscall_cpp.cpp **** Semaphore::~Semaphore() {
 107              		.loc 2 52 1 is_stmt 1
 108              		.cfi_startproc
 109              		.cfi_personality 0x9b,DW.ref.__gxx_personality_v0
 110              		.cfi_lsda 0x1b,.LLSDA22
 111              	.LVL5:
 112 0018 130101FF 		addi	sp,sp,-16
 113              		.cfi_def_cfa_offset 16
 114 001c 23341100 		sd	ra,8(sp)
 115 0020 23308100 		sd	s0,0(sp)
 116              		.cfi_offset 1, -8
 117              		.cfi_offset 8, -16
 118 0024 13040101 		addi	s0,sp,16
 119              		.cfi_def_cfa 8, 0
 120              	.LBB2:
 121              		.loc 2 52 23 is_stmt 0
 122 0028 97070000 		lla	a5,_ZTV9Semaphore+16
 122      93870700 
 123 0030 2330F500 		sd	a5,0(a0)
  53:src/syscall_cpp.cpp ****     sem_close(myHandle);
 124              		.loc 2 53 5 is_stmt 1
 125              		.loc 2 53 14 is_stmt 0
 126 0034 03358500 		ld	a0,8(a0)
 127              	.LVL6:
 128 0038 97000000 		call	_Z9sem_closeP4_sem@plt
 128      E7800000 
 129              	.LVL7:
 130              	.LBE2:
  54:src/syscall_cpp.cpp **** }
 131              		.loc 2 54 1
 132 0040 83308100 		ld	ra,8(sp)
 133              		.cfi_restore 1
 134 0044 03340100 		ld	s0,0(sp)
 135              		.cfi_restore 8
 136              		.cfi_def_cfa 2, 16
 137 0048 13010101 		addi	sp,sp,16
 138              		.cfi_def_cfa_offset 0
 139 004c 67800000 		jr	ra
 140              		.cfi_endproc
 141              	.LFE22:
 142              		.globl	__gxx_personality_v0
 143              		.section	.gcc_except_table,"a",@progbits
 144              	.LLSDA22:
 145 0000 FF       		.byte	0xff
 146 0001 FF       		.byte	0xff
GAS LISTING /tmp/ccPoNFsz.s 			page 5


 147 0002 03       		.byte	0x3
 148 0003 00       		.byte	0
 149              		.text
 151              		.globl	_ZN9SemaphoreD1Ev
 152              		.set	_ZN9SemaphoreD1Ev,_ZN9SemaphoreD2Ev
 153              		.align	2
 154              		.globl	_Znwm
 156              	_Znwm:
 157              	.LFB2:
   9:src/syscall_cpp.cpp ****     return mem_alloc(n);
 158              		.loc 2 9 1 is_stmt 1
 159              		.cfi_startproc
 160              	.LVL8:
 161 0050 130101FF 		addi	sp,sp,-16
 162              		.cfi_def_cfa_offset 16
 163 0054 23341100 		sd	ra,8(sp)
 164 0058 23308100 		sd	s0,0(sp)
 165              		.cfi_offset 1, -8
 166              		.cfi_offset 8, -16
 167 005c 13040101 		addi	s0,sp,16
 168              		.cfi_def_cfa 8, 0
  10:src/syscall_cpp.cpp **** }
 169              		.loc 2 10 5
  10:src/syscall_cpp.cpp **** }
 170              		.loc 2 10 21 is_stmt 0
 171 0060 97000000 		call	_Z9mem_allocm@plt
 171      E7800000 
 172              	.LVL9:
  11:src/syscall_cpp.cpp **** 
 173              		.loc 2 11 1
 174 0068 83308100 		ld	ra,8(sp)
 175              		.cfi_restore 1
 176 006c 03340100 		ld	s0,0(sp)
 177              		.cfi_restore 8
 178              		.cfi_def_cfa 2, 16
 179 0070 13010101 		addi	sp,sp,16
 180              		.cfi_def_cfa_offset 0
 181 0074 67800000 		jr	ra
 182              		.cfi_endproc
 183              	.LFE2:
 185              		.align	2
 186              		.globl	_Znam
 188              	_Znam:
 189              	.LFB3:
  14:src/syscall_cpp.cpp ****     return mem_alloc(n);
 190              		.loc 2 14 1 is_stmt 1
 191              		.cfi_startproc
 192              	.LVL10:
 193 0078 130101FF 		addi	sp,sp,-16
 194              		.cfi_def_cfa_offset 16
 195 007c 23341100 		sd	ra,8(sp)
 196 0080 23308100 		sd	s0,0(sp)
 197              		.cfi_offset 1, -8
 198              		.cfi_offset 8, -16
 199 0084 13040101 		addi	s0,sp,16
 200              		.cfi_def_cfa 8, 0
  15:src/syscall_cpp.cpp **** }
GAS LISTING /tmp/ccPoNFsz.s 			page 6


 201              		.loc 2 15 5
  15:src/syscall_cpp.cpp **** }
 202              		.loc 2 15 21 is_stmt 0
 203 0088 97000000 		call	_Z9mem_allocm@plt
 203      E7800000 
 204              	.LVL11:
  16:src/syscall_cpp.cpp **** 
 205              		.loc 2 16 1
 206 0090 83308100 		ld	ra,8(sp)
 207              		.cfi_restore 1
 208 0094 03340100 		ld	s0,0(sp)
 209              		.cfi_restore 8
 210              		.cfi_def_cfa 2, 16
 211 0098 13010101 		addi	sp,sp,16
 212              		.cfi_def_cfa_offset 0
 213 009c 67800000 		jr	ra
 214              		.cfi_endproc
 215              	.LFE3:
 217              		.align	2
 218              		.globl	_ZdlPv
 220              	_ZdlPv:
 221              	.LFB4:
  19:src/syscall_cpp.cpp ****     mem_free(p);
 222              		.loc 2 19 1 is_stmt 1
 223              		.cfi_startproc
 224              		.cfi_personality 0x9b,DW.ref.__gxx_personality_v0
 225              		.cfi_lsda 0x1b,.LLSDA4
 226              	.LVL12:
 227 00a0 130101FF 		addi	sp,sp,-16
 228              		.cfi_def_cfa_offset 16
 229 00a4 23341100 		sd	ra,8(sp)
 230 00a8 23308100 		sd	s0,0(sp)
 231              		.cfi_offset 1, -8
 232              		.cfi_offset 8, -16
 233 00ac 13040101 		addi	s0,sp,16
 234              		.cfi_def_cfa 8, 0
  20:src/syscall_cpp.cpp **** }
 235              		.loc 2 20 5
  20:src/syscall_cpp.cpp **** }
 236              		.loc 2 20 13 is_stmt 0
 237 00b0 97000000 		call	_Z8mem_freePv@plt
 237      E7800000 
 238              	.LVL13:
  21:src/syscall_cpp.cpp **** 
 239              		.loc 2 21 1
 240 00b8 83308100 		ld	ra,8(sp)
 241              		.cfi_restore 1
 242 00bc 03340100 		ld	s0,0(sp)
 243              		.cfi_restore 8
 244              		.cfi_def_cfa 2, 16
 245 00c0 13010101 		addi	sp,sp,16
 246              		.cfi_def_cfa_offset 0
 247 00c4 67800000 		jr	ra
 248              		.cfi_endproc
 249              	.LFE4:
 250              		.section	.gcc_except_table
 251              	.LLSDA4:
GAS LISTING /tmp/ccPoNFsz.s 			page 7


 252 0004 FF       		.byte	0xff
 253 0005 FF       		.byte	0xff
 254 0006 03       		.byte	0x3
 255 0007 00       		.byte	0
 256              		.text
 258              		.align	2
 259              		.globl	_ZN6ThreadD0Ev
 261              	_ZN6ThreadD0Ev:
 262              	.LFB12:
  32:src/syscall_cpp.cpp **** 
 263              		.loc 2 32 1 is_stmt 1
 264              		.cfi_startproc
 265              	.LVL14:
 266 00c8 130101FF 		addi	sp,sp,-16
 267              		.cfi_def_cfa_offset 16
 268 00cc 23341100 		sd	ra,8(sp)
 269 00d0 23308100 		sd	s0,0(sp)
 270              		.cfi_offset 1, -8
 271              		.cfi_offset 8, -16
 272 00d4 13040101 		addi	s0,sp,16
 273              		.cfi_def_cfa 8, 0
  34:src/syscall_cpp.cpp **** 
 274              		.loc 2 34 1 is_stmt 0
 275 00d8 97000000 		call	_ZdlPv
 275      E7800000 
 276              	.LVL15:
 277 00e0 83308100 		ld	ra,8(sp)
 278              		.cfi_restore 1
 279 00e4 03340100 		ld	s0,0(sp)
 280              		.cfi_restore 8
 281              		.cfi_def_cfa 2, 16
 282 00e8 13010101 		addi	sp,sp,16
 283              		.cfi_def_cfa_offset 0
 284 00ec 67800000 		jr	ra
 285              		.cfi_endproc
 286              	.LFE12:
 288              		.align	2
 289              		.globl	_ZN9SemaphoreD0Ev
 291              	_ZN9SemaphoreD0Ev:
 292              	.LFB24:
  52:src/syscall_cpp.cpp ****     sem_close(myHandle);
 293              		.loc 2 52 1 is_stmt 1
 294              		.cfi_startproc
 295              	.LVL16:
 296 00f0 130101FE 		addi	sp,sp,-32
 297              		.cfi_def_cfa_offset 32
 298 00f4 233C1100 		sd	ra,24(sp)
 299 00f8 23388100 		sd	s0,16(sp)
 300 00fc 23349100 		sd	s1,8(sp)
 301              		.cfi_offset 1, -8
 302              		.cfi_offset 8, -16
 303              		.cfi_offset 9, -24
 304 0100 13040102 		addi	s0,sp,32
 305              		.cfi_def_cfa 8, 0
 306 0104 93040500 		mv	s1,a0
 307              		.loc 2 54 1 is_stmt 0
 308 0108 97000000 		call	_ZN9SemaphoreD1Ev
GAS LISTING /tmp/ccPoNFsz.s 			page 8


 308      E7800000 
 309              	.LVL17:
 310 0110 13850400 		mv	a0,s1
 311 0114 97000000 		call	_ZdlPv
 311      E7800000 
 312              	.LVL18:
 313 011c 83308101 		ld	ra,24(sp)
 314              		.cfi_restore 1
 315 0120 03340101 		ld	s0,16(sp)
 316              		.cfi_restore 8
 317              		.cfi_def_cfa 2, 32
 318 0124 83348100 		ld	s1,8(sp)
 319              		.cfi_restore 9
 320              	.LVL19:
 321 0128 13010102 		addi	sp,sp,32
 322              		.cfi_def_cfa_offset 0
 323 012c 67800000 		jr	ra
 324              		.cfi_endproc
 325              	.LFE24:
 327              		.align	2
 328              		.globl	_ZdaPv
 330              	_ZdaPv:
 331              	.LFB5:
  24:src/syscall_cpp.cpp ****     mem_free(p);
 332              		.loc 2 24 1 is_stmt 1
 333              		.cfi_startproc
 334              		.cfi_personality 0x9b,DW.ref.__gxx_personality_v0
 335              		.cfi_lsda 0x1b,.LLSDA5
 336              	.LVL20:
 337 0130 130101FF 		addi	sp,sp,-16
 338              		.cfi_def_cfa_offset 16
 339 0134 23341100 		sd	ra,8(sp)
 340 0138 23308100 		sd	s0,0(sp)
 341              		.cfi_offset 1, -8
 342              		.cfi_offset 8, -16
 343 013c 13040101 		addi	s0,sp,16
 344              		.cfi_def_cfa 8, 0
  25:src/syscall_cpp.cpp **** }
 345              		.loc 2 25 5
  25:src/syscall_cpp.cpp **** }
 346              		.loc 2 25 13 is_stmt 0
 347 0140 97000000 		call	_Z8mem_freePv@plt
 347      E7800000 
 348              	.LVL21:
  26:src/syscall_cpp.cpp **** 
 349              		.loc 2 26 1
 350 0148 83308100 		ld	ra,8(sp)
 351              		.cfi_restore 1
 352 014c 03340100 		ld	s0,0(sp)
 353              		.cfi_restore 8
 354              		.cfi_def_cfa 2, 16
 355 0150 13010101 		addi	sp,sp,16
 356              		.cfi_def_cfa_offset 0
 357 0154 67800000 		jr	ra
 358              		.cfi_endproc
 359              	.LFE5:
 360              		.section	.gcc_except_table
GAS LISTING /tmp/ccPoNFsz.s 			page 9


 361              	.LLSDA5:
 362 0008 FF       		.byte	0xff
 363 0009 FF       		.byte	0xff
 364 000a 03       		.byte	0x3
 365 000b 00       		.byte	0
 366              		.text
 368              		.align	2
 369              		.globl	_ZN6ThreadC2EPFvPvES0_
 371              	_ZN6ThreadC2EPFvPvES0_:
 372              	.LFB7:
  28:src/syscall_cpp.cpp **** }
 373              		.loc 2 28 1 is_stmt 1
 374              		.cfi_startproc
 375              	.LVL22:
 376 0158 130101FF 		addi	sp,sp,-16
 377              		.cfi_def_cfa_offset 16
 378 015c 23348100 		sd	s0,8(sp)
 379              		.cfi_offset 8, -8
 380 0160 13040101 		addi	s0,sp,16
 381              		.cfi_def_cfa 8, 0
 382              	.LBB3:
  28:src/syscall_cpp.cpp **** }
 383              		.loc 2 28 70 is_stmt 0
 384 0164 97070000 		lla	a5,_ZTV6Thread+16
 384      93870700 
 385 016c 2330F500 		sd	a5,0(a0)
 386 0170 2338B500 		sd	a1,16(a0)
 387 0174 233CC500 		sd	a2,24(a0)
 388              	.LBE3:
  29:src/syscall_cpp.cpp **** 
 389              		.loc 2 29 1
 390 0178 03348100 		ld	s0,8(sp)
 391              		.cfi_restore 8
 392              		.cfi_def_cfa 2, 16
 393 017c 13010101 		addi	sp,sp,16
 394              		.cfi_def_cfa_offset 0
 395 0180 67800000 		jr	ra
 396              		.cfi_endproc
 397              	.LFE7:
 399              		.globl	_ZN6ThreadC1EPFvPvES0_
 400              		.set	_ZN6ThreadC1EPFvPvES0_,_ZN6ThreadC2EPFvPvES0_
 401              		.align	2
 402              		.globl	_ZN6Thread5startEv
 404              	_ZN6Thread5startEv:
 405              	.LFB13:
  36:src/syscall_cpp.cpp ****     return thread_create(&myHandle, body, arg);
 406              		.loc 2 36 21 is_stmt 1
 407              		.cfi_startproc
 408              	.LVL23:
 409 0184 130101FF 		addi	sp,sp,-16
 410              		.cfi_def_cfa_offset 16
 411 0188 23341100 		sd	ra,8(sp)
 412 018c 23308100 		sd	s0,0(sp)
 413              		.cfi_offset 1, -8
 414              		.cfi_offset 8, -16
 415 0190 13040101 		addi	s0,sp,16
 416              		.cfi_def_cfa 8, 0
GAS LISTING /tmp/ccPoNFsz.s 			page 10


  37:src/syscall_cpp.cpp **** }
 417              		.loc 2 37 5
  37:src/syscall_cpp.cpp **** }
 418              		.loc 2 37 25 is_stmt 0
 419 0194 03368501 		ld	a2,24(a0)
 420 0198 83350501 		ld	a1,16(a0)
 421 019c 13058500 		addi	a0,a0,8
 422              	.LVL24:
 423 01a0 97000000 		call	_Z13thread_createPP7_threadPFvPvES2_@plt
 423      E7800000 
 424              	.LVL25:
  38:src/syscall_cpp.cpp **** 
 425              		.loc 2 38 1
 426 01a8 83308100 		ld	ra,8(sp)
 427              		.cfi_restore 1
 428 01ac 03340100 		ld	s0,0(sp)
 429              		.cfi_restore 8
 430              		.cfi_def_cfa 2, 16
 431 01b0 13010101 		addi	sp,sp,16
 432              		.cfi_def_cfa_offset 0
 433 01b4 67800000 		jr	ra
 434              		.cfi_endproc
 435              	.LFE13:
 437              		.align	2
 438              		.globl	_ZN6Thread8dispatchEv
 440              	_ZN6Thread8dispatchEv:
 441              	.LFB14:
  40:src/syscall_cpp.cpp ****     thread_dispatch();
 442              		.loc 2 40 25 is_stmt 1
 443              		.cfi_startproc
 444 01b8 130101FF 		addi	sp,sp,-16
 445              		.cfi_def_cfa_offset 16
 446 01bc 23341100 		sd	ra,8(sp)
 447 01c0 23308100 		sd	s0,0(sp)
 448              		.cfi_offset 1, -8
 449              		.cfi_offset 8, -16
 450 01c4 13040101 		addi	s0,sp,16
 451              		.cfi_def_cfa 8, 0
  41:src/syscall_cpp.cpp **** }
 452              		.loc 2 41 5
  41:src/syscall_cpp.cpp **** }
 453              		.loc 2 41 20 is_stmt 0
 454 01c8 97000000 		call	_Z15thread_dispatchv@plt
 454      E7800000 
 455              	.LVL26:
  42:src/syscall_cpp.cpp **** 
 456              		.loc 2 42 1
 457 01d0 83308100 		ld	ra,8(sp)
 458              		.cfi_restore 1
 459 01d4 03340100 		ld	s0,0(sp)
 460              		.cfi_restore 8
 461              		.cfi_def_cfa 2, 16
 462 01d8 13010101 		addi	sp,sp,16
 463              		.cfi_def_cfa_offset 0
 464 01dc 67800000 		jr	ra
 465              		.cfi_endproc
 466              	.LFE14:
GAS LISTING /tmp/ccPoNFsz.s 			page 11


 468              		.align	2
 469              		.globl	_ZN6ThreadC2Ev
 471              	_ZN6ThreadC2Ev:
 472              	.LFB16:
  44:src/syscall_cpp.cpp **** 
 473              		.loc 2 44 1 is_stmt 1
 474              		.cfi_startproc
 475              	.LVL27:
 476 01e0 130101FF 		addi	sp,sp,-16
 477              		.cfi_def_cfa_offset 16
 478 01e4 23348100 		sd	s0,8(sp)
 479              		.cfi_offset 8, -8
 480 01e8 13040101 		addi	s0,sp,16
 481              		.cfi_def_cfa 8, 0
 482              	.LBB4:
  44:src/syscall_cpp.cpp **** 
 483              		.loc 2 44 47 is_stmt 0
 484 01ec 97070000 		lla	a5,_ZTV6Thread+16
 484      93870700 
 485 01f4 2330F500 		sd	a5,0(a0)
 486 01f8 97070000 		lla	a5,_ZN6Thread10runWrapperEPv
 486      93870700 
 487 0200 2338F500 		sd	a5,16(a0)
 488 0204 233CA500 		sd	a0,24(a0)
 489              	.LBE4:
  46:src/syscall_cpp.cpp **** 
 490              		.loc 2 46 1
 491 0208 03348100 		ld	s0,8(sp)
 492              		.cfi_restore 8
 493              		.cfi_def_cfa 2, 16
 494 020c 13010101 		addi	sp,sp,16
 495              		.cfi_def_cfa_offset 0
 496 0210 67800000 		jr	ra
 497              		.cfi_endproc
 498              	.LFE16:
 500              		.globl	_ZN6ThreadC1Ev
 501              		.set	_ZN6ThreadC1Ev,_ZN6ThreadC2Ev
 502              		.align	2
 503              		.globl	_ZN9SemaphoreC2Ej
 505              	_ZN9SemaphoreC2Ej:
 506              	.LFB19:
  48:src/syscall_cpp.cpp ****     sem_open(&myHandle, init);
 507              		.loc 2 48 1 is_stmt 1
 508              		.cfi_startproc
 509              	.LVL28:
 510 0214 130101FF 		addi	sp,sp,-16
 511              		.cfi_def_cfa_offset 16
 512 0218 23341100 		sd	ra,8(sp)
 513 021c 23308100 		sd	s0,0(sp)
 514              		.cfi_offset 1, -8
 515              		.cfi_offset 8, -16
 516 0220 13040101 		addi	s0,sp,16
 517              		.cfi_def_cfa 8, 0
 518              	.LBB5:
  48:src/syscall_cpp.cpp ****     sem_open(&myHandle, init);
 519              		.loc 2 48 39 is_stmt 0
 520 0224 97070000 		lla	a5,_ZTV9Semaphore+16
GAS LISTING /tmp/ccPoNFsz.s 			page 12


 520      93870700 
 521 022c 2330F500 		sd	a5,0(a0)
  49:src/syscall_cpp.cpp **** }
 522              		.loc 2 49 5 is_stmt 1
  49:src/syscall_cpp.cpp **** }
 523              		.loc 2 49 13 is_stmt 0
 524 0230 93950502 		slli	a1,a1,32
 525              	.LVL29:
 526 0234 93D50502 		srli	a1,a1,32
 527 0238 13058500 		addi	a0,a0,8
 528              	.LVL30:
 529 023c 97000000 		call	_Z8sem_openPP4_semm@plt
 529      E7800000 
 530              	.LVL31:
 531              	.LBE5:
  50:src/syscall_cpp.cpp **** 
 532              		.loc 2 50 1
 533 0244 83308100 		ld	ra,8(sp)
 534              		.cfi_restore 1
 535 0248 03340100 		ld	s0,0(sp)
 536              		.cfi_restore 8
 537              		.cfi_def_cfa 2, 16
 538 024c 13010101 		addi	sp,sp,16
 539              		.cfi_def_cfa_offset 0
 540 0250 67800000 		jr	ra
 541              		.cfi_endproc
 542              	.LFE19:
 544              		.globl	_ZN9SemaphoreC1Ej
 545              		.set	_ZN9SemaphoreC1Ej,_ZN9SemaphoreC2Ej
 546              		.align	2
 547              		.globl	_ZN9Semaphore4waitEv
 549              	_ZN9Semaphore4waitEv:
 550              	.LFB25:
  55:src/syscall_cpp.cpp **** 
  56:src/syscall_cpp.cpp **** int Semaphore::wait() {
 551              		.loc 2 56 23 is_stmt 1
 552              		.cfi_startproc
 553              	.LVL32:
 554 0254 130101FF 		addi	sp,sp,-16
 555              		.cfi_def_cfa_offset 16
 556 0258 23341100 		sd	ra,8(sp)
 557 025c 23308100 		sd	s0,0(sp)
 558              		.cfi_offset 1, -8
 559              		.cfi_offset 8, -16
 560 0260 13040101 		addi	s0,sp,16
 561              		.cfi_def_cfa 8, 0
  57:src/syscall_cpp.cpp ****     return sem_wait(myHandle);
 562              		.loc 2 57 5
 563              		.loc 2 57 20 is_stmt 0
 564 0264 03358500 		ld	a0,8(a0)
 565              	.LVL33:
 566 0268 97000000 		call	_Z8sem_waitP4_sem@plt
 566      E7800000 
 567              	.LVL34:
  58:src/syscall_cpp.cpp **** }
 568              		.loc 2 58 1
 569 0270 83308100 		ld	ra,8(sp)
GAS LISTING /tmp/ccPoNFsz.s 			page 13


 570              		.cfi_restore 1
 571 0274 03340100 		ld	s0,0(sp)
 572              		.cfi_restore 8
 573              		.cfi_def_cfa 2, 16
 574 0278 13010101 		addi	sp,sp,16
 575              		.cfi_def_cfa_offset 0
 576 027c 67800000 		jr	ra
 577              		.cfi_endproc
 578              	.LFE25:
 580              		.align	2
 581              		.globl	_ZN9Semaphore6signalEv
 583              	_ZN9Semaphore6signalEv:
 584              	.LFB26:
  59:src/syscall_cpp.cpp **** 
  60:src/syscall_cpp.cpp **** int Semaphore::signal() {
 585              		.loc 2 60 25 is_stmt 1
 586              		.cfi_startproc
 587              	.LVL35:
 588 0280 130101FF 		addi	sp,sp,-16
 589              		.cfi_def_cfa_offset 16
 590 0284 23341100 		sd	ra,8(sp)
 591 0288 23308100 		sd	s0,0(sp)
 592              		.cfi_offset 1, -8
 593              		.cfi_offset 8, -16
 594 028c 13040101 		addi	s0,sp,16
 595              		.cfi_def_cfa 8, 0
  61:src/syscall_cpp.cpp ****     return sem_signal(myHandle);
 596              		.loc 2 61 5
 597              		.loc 2 61 22 is_stmt 0
 598 0290 03358500 		ld	a0,8(a0)
 599              	.LVL36:
 600 0294 97000000 		call	_Z10sem_signalP4_sem@plt
 600      E7800000 
 601              	.LVL37:
  62:src/syscall_cpp.cpp **** }
 602              		.loc 2 62 1
 603 029c 83308100 		ld	ra,8(sp)
 604              		.cfi_restore 1
 605 02a0 03340100 		ld	s0,0(sp)
 606              		.cfi_restore 8
 607              		.cfi_def_cfa 2, 16
 608 02a4 13010101 		addi	sp,sp,16
 609              		.cfi_def_cfa_offset 0
 610 02a8 67800000 		jr	ra
 611              		.cfi_endproc
 612              	.LFE26:
 614              		.align	2
 615              		.globl	_ZN9Semaphore7tryWaitEv
 617              	_ZN9Semaphore7tryWaitEv:
 618              	.LFB27:
  63:src/syscall_cpp.cpp **** 
  64:src/syscall_cpp.cpp **** int Semaphore::tryWait() {
 619              		.loc 2 64 26 is_stmt 1
 620              		.cfi_startproc
 621              	.LVL38:
 622 02ac 130101FF 		addi	sp,sp,-16
 623              		.cfi_def_cfa_offset 16
GAS LISTING /tmp/ccPoNFsz.s 			page 14


 624 02b0 23341100 		sd	ra,8(sp)
 625 02b4 23308100 		sd	s0,0(sp)
 626              		.cfi_offset 1, -8
 627              		.cfi_offset 8, -16
 628 02b8 13040101 		addi	s0,sp,16
 629              		.cfi_def_cfa 8, 0
  65:src/syscall_cpp.cpp ****     return sem_trywait(myHandle);
 630              		.loc 2 65 5
 631              		.loc 2 65 23 is_stmt 0
 632 02bc 03358500 		ld	a0,8(a0)
 633              	.LVL39:
 634 02c0 97000000 		call	_Z11sem_trywaitP4_sem@plt
 634      E7800000 
 635              	.LVL40:
  66:src/syscall_cpp.cpp **** }
 636              		.loc 2 66 1
 637 02c8 83308100 		ld	ra,8(sp)
 638              		.cfi_restore 1
 639 02cc 03340100 		ld	s0,0(sp)
 640              		.cfi_restore 8
 641              		.cfi_def_cfa 2, 16
 642 02d0 13010101 		addi	sp,sp,16
 643              		.cfi_def_cfa_offset 0
 644 02d4 67800000 		jr	ra
 645              		.cfi_endproc
 646              	.LFE27:
 648              		.align	2
 649              		.globl	_ZN7Console4getcEv
 651              	_ZN7Console4getcEv:
 652              	.LFB28:
  67:src/syscall_cpp.cpp **** 
  68:src/syscall_cpp.cpp **** 
  69:src/syscall_cpp.cpp **** char Console::getc() {
 653              		.loc 2 69 22 is_stmt 1
 654              		.cfi_startproc
 655 02d8 130101FF 		addi	sp,sp,-16
 656              		.cfi_def_cfa_offset 16
 657 02dc 23341100 		sd	ra,8(sp)
 658 02e0 23308100 		sd	s0,0(sp)
 659              		.cfi_offset 1, -8
 660              		.cfi_offset 8, -16
 661 02e4 13040101 		addi	s0,sp,16
 662              		.cfi_def_cfa 8, 0
  70:src/syscall_cpp.cpp ****     return ::getc();
 663              		.loc 2 70 5
 664              		.loc 2 70 18 is_stmt 0
 665 02e8 97000000 		call	_Z4getcv@plt
 665      E7800000 
 666              	.LVL41:
  71:src/syscall_cpp.cpp **** }
 667              		.loc 2 71 1
 668 02f0 83308100 		ld	ra,8(sp)
 669              		.cfi_restore 1
 670 02f4 03340100 		ld	s0,0(sp)
 671              		.cfi_restore 8
 672              		.cfi_def_cfa 2, 16
 673 02f8 13010101 		addi	sp,sp,16
GAS LISTING /tmp/ccPoNFsz.s 			page 15


 674              		.cfi_def_cfa_offset 0
 675 02fc 67800000 		jr	ra
 676              		.cfi_endproc
 677              	.LFE28:
 679              		.align	2
 680              		.globl	_ZN7Console4putcEc
 682              	_ZN7Console4putcEc:
 683              	.LFB29:
  72:src/syscall_cpp.cpp **** 
  73:src/syscall_cpp.cpp **** void Console::putc(char c) {
 684              		.loc 2 73 28 is_stmt 1
 685              		.cfi_startproc
 686              	.LVL42:
 687 0300 130101FF 		addi	sp,sp,-16
 688              		.cfi_def_cfa_offset 16
 689 0304 23341100 		sd	ra,8(sp)
 690 0308 23308100 		sd	s0,0(sp)
 691              		.cfi_offset 1, -8
 692              		.cfi_offset 8, -16
 693 030c 13040101 		addi	s0,sp,16
 694              		.cfi_def_cfa 8, 0
  74:src/syscall_cpp.cpp ****     ::putc(c);
 695              		.loc 2 74 5
 696              		.loc 2 74 11 is_stmt 0
 697 0310 97000000 		call	_Z4putcc@plt
 697      E7800000 
 698              	.LVL43:
  75:src/syscall_cpp.cpp **** }
 699              		.loc 2 75 1
 700 0318 83308100 		ld	ra,8(sp)
 701              		.cfi_restore 1
 702 031c 03340100 		ld	s0,0(sp)
 703              		.cfi_restore 8
 704              		.cfi_def_cfa 2, 16
 705 0320 13010101 		addi	sp,sp,16
 706              		.cfi_def_cfa_offset 0
 707 0324 67800000 		jr	ra
 708              		.cfi_endproc
 709              	.LFE29:
 711              		.weak	_ZTV6Thread
 712              		.section	.data.rel.ro.local._ZTV6Thread,"awG",@progbits,_ZTV6Thread,comdat
 713              		.align	3
 716              	_ZTV6Thread:
 717 0000 00000000 		.dword	0
 717      00000000 
 718 0008 00000000 		.dword	0
 718      00000000 
 719 0010 00000000 		.dword	_ZN6ThreadD1Ev
 719      00000000 
 720 0018 00000000 		.dword	_ZN6ThreadD0Ev
 720      00000000 
 721 0020 00000000 		.dword	_ZN6Thread3runEv
 721      00000000 
 722              		.weak	_ZTV9Semaphore
 723              		.section	.data.rel.ro.local._ZTV9Semaphore,"awG",@progbits,_ZTV9Semaphore,comdat
 724              		.align	3
 727              	_ZTV9Semaphore:
GAS LISTING /tmp/ccPoNFsz.s 			page 16


 728 0000 00000000 		.dword	0
 728      00000000 
 729 0008 00000000 		.dword	0
 729      00000000 
 730 0010 00000000 		.dword	_ZN9SemaphoreD1Ev
 730      00000000 
 731 0018 00000000 		.dword	_ZN9SemaphoreD0Ev
 731      00000000 
 732              		.text
 733              	.Letext0:
 734              		.file 3 "src/../h/../lib/hw.h"
 735              		.file 4 "src/../h/syscall_c.hpp"
 3065              		.align	3
 3068              	DW.ref.__gxx_personality_v0:
 3069 0000 00000000 		.dword	__gxx_personality_v0
 3069      00000000 
 3070              		.ident	"GCC: (Ubuntu 9.4.0-1ubuntu1~20.04) 9.4.0"
 3071              		.section	.note.GNU-stack,"",@progbits
GAS LISTING /tmp/ccPoNFsz.s 			page 17

