GAS LISTING /tmp/ccYAo4sf.s 			page 1


   1              		.file	"syscall_c.cpp"
   2              		.option pic
   3              		.option norelax
   4              		.text
   5              	.Ltext0:
   6              		.align	2
   7              		.globl	_Z9mem_allocm
   9              	_Z9mem_allocm:
  10              	.LFB0:
  11              		.file 1 "src/syscall_c.cpp"
   1:src/syscall_c.cpp **** //
   2:src/syscall_c.cpp **** // Created by os on 8/19/24.
   3:src/syscall_c.cpp **** //
   4:src/syscall_c.cpp **** 
   5:src/syscall_c.cpp **** #include "../h/syscall_c.hpp"
   6:src/syscall_c.cpp **** 
   7:src/syscall_c.cpp **** class _thread;
   8:src/syscall_c.cpp **** typedef _thread* thread_t;
   9:src/syscall_c.cpp **** 
  10:src/syscall_c.cpp **** void* mem_alloc(size_t size) {
  12              		.loc 1 10 30
  13              		.cfi_startproc
  14              	.LVL0:
  15 0000 130101FE 		addi	sp,sp,-32
  16              		.cfi_def_cfa_offset 32
  17 0004 233C8100 		sd	s0,24(sp)
  18              		.cfi_offset 8, -8
  19 0008 13040102 		addi	s0,sp,32
  20              		.cfi_def_cfa 8, 0
  11:src/syscall_c.cpp ****     uint64 volatile ptr = 0;
  21              		.loc 1 11 5
  22              		.loc 1 11 21 is_stmt 0
  23 000c 233404FE 		sd	zero,-24(s0)
  12:src/syscall_c.cpp ****     size = (size / MEM_BLOCK_SIZE) + (size % MEM_BLOCK_SIZE ? 1 : 0);
  24              		.loc 1 12 5 is_stmt 1
  25              		.loc 1 12 18 is_stmt 0
  26 0010 93576500 		srli	a5,a0,6
  27              		.loc 1 12 44
  28 0014 1375F503 		andi	a0,a0,63
  29              	.LVL1:
  30              		.loc 1 12 61
  31 0018 63040500 		beqz	a0,.L2
  32 001c 13051000 		li	a0,1
  33              	.L2:
  34              		.loc 1 12 10 discriminator 4
  35 0020 3385A700 		add	a0,a5,a0
  36              	.LVL2:
  13:src/syscall_c.cpp ****     __asm__ volatile ("mv a1, %0" : : "r" (size));
  37              		.loc 1 13 5 is_stmt 1 discriminator 4
  38              		.loc 1 13 50 is_stmt 0 discriminator 4
  39              	#APP
  40              	# 13 "src/syscall_c.cpp" 1
  14              	    __asm__ volatile ("mv a0, %0" : : "r" (SyscallC::MEMALLOC));
  41              		mv a1, a0
  42              	# 0 "" 2
  43              		.loc 1 14 5 is_stmt 1 discriminator 4
  44              		.loc 1 14 64 is_stmt 0 discriminator 4
GAS LISTING /tmp/ccYAo4sf.s 			page 2


  45              	#NO_APP
  46 0028 93071000 		li	a5,1
  47              	#APP
  48              	# 14 "src/syscall_c.cpp" 1
  15              	    __asm__ volatile ("ecall");
  49              		mv a0, a5
  50              	# 0 "" 2
  51              		.loc 1 15 5 is_stmt 1 discriminator 4
  52              		.loc 1 15 31 is_stmt 0 discriminator 4
  53              	# 15 "src/syscall_c.cpp" 1
  16              	    __asm__ volatile ("mv %0, a0" : "=r" (ptr));
  54              		ecall
  55              	# 0 "" 2
  56              		.loc 1 16 5 is_stmt 1 discriminator 4
  57              		.loc 1 16 48 is_stmt 0 discriminator 4
  58              	# 16 "src/syscall_c.cpp" 1
  17              	    return (void*)ptr;
  59              		mv a5, a0
  60              	# 0 "" 2
  61              	#NO_APP
  62 0038 2334F4FE 		sd	a5,-24(s0)
  63              		.loc 1 17 5 is_stmt 1 discriminator 4
  64              		.loc 1 17 19 is_stmt 0 discriminator 4
  65 003c 033584FE 		ld	a0,-24(s0)
  66              	.LVL3:
  18:src/syscall_c.cpp **** }
  67              		.loc 1 18 1 discriminator 4
  68 0040 03348101 		ld	s0,24(sp)
  69              		.cfi_restore 8
  70              		.cfi_def_cfa 2, 32
  71 0044 13010102 		addi	sp,sp,32
  72              		.cfi_def_cfa_offset 0
  73 0048 67800000 		jr	ra
  74              		.cfi_endproc
  75              	.LFE0:
  77              		.align	2
  78              		.globl	_Z8mem_freePv
  80              	_Z8mem_freePv:
  81              	.LFB1:
  19:src/syscall_c.cpp **** 
  20:src/syscall_c.cpp **** int mem_free(void* ptr) {
  82              		.loc 1 20 25 is_stmt 1
  83              		.cfi_startproc
  84              	.LVL4:
  85 004c 130101FE 		addi	sp,sp,-32
  86              		.cfi_def_cfa_offset 32
  87 0050 233C8100 		sd	s0,24(sp)
  88              		.cfi_offset 8, -8
  89 0054 13040102 		addi	s0,sp,32
  90              		.cfi_def_cfa 8, 0
  21:src/syscall_c.cpp ****     int volatile ret = 0;
  91              		.loc 1 21 5
  92              		.loc 1 21 18 is_stmt 0
  93 0058 232604FE 		sw	zero,-20(s0)
  22:src/syscall_c.cpp ****     __asm__ volatile ("mv a1, %0" : : "r" (ptr));
  94              		.loc 1 22 5 is_stmt 1
  95              		.loc 1 22 49 is_stmt 0
GAS LISTING /tmp/ccYAo4sf.s 			page 3


  96              	#APP
  97              	# 22 "src/syscall_c.cpp" 1
  23              	    __asm__ volatile ("mv a0, %0" : : "r" (SyscallC::MEMFREE));
  98              		mv a1, a0
  99              	# 0 "" 2
 100              		.loc 1 23 5 is_stmt 1
 101              		.loc 1 23 63 is_stmt 0
 102              	#NO_APP
 103 0060 93072000 		li	a5,2
 104              	#APP
 105              	# 23 "src/syscall_c.cpp" 1
  24              	    __asm__ volatile ("ecall");
 106              		mv a0, a5
 107              	# 0 "" 2
 108              		.loc 1 24 5 is_stmt 1
 109              		.loc 1 24 31 is_stmt 0
 110              	# 24 "src/syscall_c.cpp" 1
  25              	    __asm__ volatile ("mv %0, a0" : "=r" (ret));
 111              		ecall
 112              	# 0 "" 2
 113              		.loc 1 25 5 is_stmt 1
 114              		.loc 1 25 48 is_stmt 0
 115              	# 25 "src/syscall_c.cpp" 1
  26              	    return ret;
 116              		mv a5, a0
 117              	# 0 "" 2
 118              	#NO_APP
 119 0070 2326F4FE 		sw	a5,-20(s0)
 120              		.loc 1 26 5 is_stmt 1
 121              		.loc 1 26 12 is_stmt 0
 122 0074 0325C4FE 		lw	a0,-20(s0)
 123              	.LVL5:
  27:src/syscall_c.cpp **** }
 124              		.loc 1 27 1
 125 0078 1B050500 		sext.w	a0,a0
 126 007c 03348101 		ld	s0,24(sp)
 127              		.cfi_restore 8
 128              		.cfi_def_cfa 2, 32
 129 0080 13010102 		addi	sp,sp,32
 130              		.cfi_def_cfa_offset 0
 131 0084 67800000 		jr	ra
 132              		.cfi_endproc
 133              	.LFE1:
 135              		.align	2
 136              		.globl	_Z13thread_createPP7_threadPFvPvES2_
 138              	_Z13thread_createPP7_threadPFvPvES2_:
 139              	.LFB2:
  28:src/syscall_c.cpp **** 
  29:src/syscall_c.cpp **** int thread_create(thread_t *handle, void (*start_routine)(void *), void *arg){
 140              		.loc 1 29 78 is_stmt 1
 141              		.cfi_startproc
 142              	.LVL6:
 143 0088 130101FC 		addi	sp,sp,-64
 144              		.cfi_def_cfa_offset 64
 145 008c 233C1102 		sd	ra,56(sp)
 146 0090 23388102 		sd	s0,48(sp)
 147 0094 23349102 		sd	s1,40(sp)
GAS LISTING /tmp/ccYAo4sf.s 			page 4


 148 0098 23302103 		sd	s2,32(sp)
 149 009c 233C3101 		sd	s3,24(sp)
 150              		.cfi_offset 1, -8
 151              		.cfi_offset 8, -16
 152              		.cfi_offset 9, -24
 153              		.cfi_offset 18, -32
 154              		.cfi_offset 19, -40
 155 00a0 13040104 		addi	s0,sp,64
 156              		.cfi_def_cfa 8, 0
 157 00a4 93040500 		mv	s1,a0
 158 00a8 13890500 		mv	s2,a1
 159 00ac 93090600 		mv	s3,a2
  30:src/syscall_c.cpp ****     int volatile ret = 0;
 160              		.loc 1 30 5
 161              		.loc 1 30 18 is_stmt 0
 162 00b0 232604FC 		sw	zero,-52(s0)
  31:src/syscall_c.cpp ****     uint64 stack;
 163              		.loc 1 31 5 is_stmt 1
  32:src/syscall_c.cpp ****     stack = (uint64)mem_alloc(DEFAULT_STACK_SIZE);
 164              		.loc 1 32 5
 165              		.loc 1 32 30 is_stmt 0
 166 00b4 37150000 		li	a0,4096
 167              	.LVL7:
 168 00b8 97000000 		call	_Z9mem_allocm
 168      E7800000 
 169              	.LVL8:
  33:src/syscall_c.cpp ****     __asm__ volatile ("mv a4, %0" : : "r" (stack));
 170              		.loc 1 33 5 is_stmt 1
 171              		.loc 1 33 51 is_stmt 0
 172              	#APP
 173              	# 33 "src/syscall_c.cpp" 1
  34              	    __asm__ volatile ("mv a3, %0" : : "r" (arg));
 174              		mv a4, a0
 175              	# 0 "" 2
 176              		.loc 1 34 5 is_stmt 1
 177              		.loc 1 34 49 is_stmt 0
 178              	# 34 "src/syscall_c.cpp" 1
  35              	    __asm__ volatile ("mv a2, %0" : : "r" (start_routine));
 179              		mv a3, s3
 180              	# 0 "" 2
 181              		.loc 1 35 5 is_stmt 1
 182              		.loc 1 35 59 is_stmt 0
 183              	# 35 "src/syscall_c.cpp" 1
  36              	    __asm__ volatile ("mv a1, %0" : : "r" (handle));
 184              		mv a2, s2
 185              	# 0 "" 2
 186              		.loc 1 36 5 is_stmt 1
 187              		.loc 1 36 52 is_stmt 0
 188              	# 36 "src/syscall_c.cpp" 1
  37              	    __asm__ volatile ("mv a0, %0" : : "r" (SyscallC::THREADCREATE));
 189              		mv a1, s1
 190              	# 0 "" 2
 191              		.loc 1 37 5 is_stmt 1
 192              		.loc 1 37 68 is_stmt 0
 193              	#NO_APP
 194 00d0 93071001 		li	a5,17
 195              	#APP
GAS LISTING /tmp/ccYAo4sf.s 			page 5


 196              	# 37 "src/syscall_c.cpp" 1
  38              	    __asm__ volatile ("ecall");
 197              		mv a0, a5
 198              	# 0 "" 2
 199              		.loc 1 38 5 is_stmt 1
 200              		.loc 1 38 31 is_stmt 0
 201              	# 38 "src/syscall_c.cpp" 1
  39              	    __asm__ volatile ("mv %0, a0" : "=r" (ret));
 202              		ecall
 203              	# 0 "" 2
 204              		.loc 1 39 5 is_stmt 1
 205              		.loc 1 39 48 is_stmt 0
 206              	# 39 "src/syscall_c.cpp" 1
  40              	    return ret;
 207              		mv a5, a0
 208              	# 0 "" 2
 209              	#NO_APP
 210 00e0 2326F4FC 		sw	a5,-52(s0)
 211              		.loc 1 40 5 is_stmt 1
 212              		.loc 1 40 12 is_stmt 0
 213 00e4 0325C4FC 		lw	a0,-52(s0)
 214              	.LVL9:
  41:src/syscall_c.cpp **** }
 215              		.loc 1 41 1
 216 00e8 1B050500 		sext.w	a0,a0
 217 00ec 83308103 		ld	ra,56(sp)
 218              		.cfi_restore 1
 219 00f0 03340103 		ld	s0,48(sp)
 220              		.cfi_restore 8
 221              		.cfi_def_cfa 2, 64
 222 00f4 83348102 		ld	s1,40(sp)
 223              		.cfi_restore 9
 224              	.LVL10:
 225 00f8 03390102 		ld	s2,32(sp)
 226              		.cfi_restore 18
 227              	.LVL11:
 228 00fc 83398101 		ld	s3,24(sp)
 229              		.cfi_restore 19
 230              	.LVL12:
 231 0100 13010104 		addi	sp,sp,64
 232              		.cfi_def_cfa_offset 0
 233 0104 67800000 		jr	ra
 234              		.cfi_endproc
 235              	.LFE2:
 237              		.align	2
 238              		.globl	_Z11thread_exitv
 240              	_Z11thread_exitv:
 241              	.LFB3:
  42:src/syscall_c.cpp **** 
  43:src/syscall_c.cpp **** int thread_exit(){
 242              		.loc 1 43 18 is_stmt 1
 243              		.cfi_startproc
 244 0108 130101FE 		addi	sp,sp,-32
 245              		.cfi_def_cfa_offset 32
 246 010c 233C8100 		sd	s0,24(sp)
 247              		.cfi_offset 8, -8
 248 0110 13040102 		addi	s0,sp,32
GAS LISTING /tmp/ccYAo4sf.s 			page 6


 249              		.cfi_def_cfa 8, 0
  44:src/syscall_c.cpp ****     int volatile ret = 0;
 250              		.loc 1 44 5
 251              		.loc 1 44 18 is_stmt 0
 252 0114 232604FE 		sw	zero,-20(s0)
  45:src/syscall_c.cpp ****     __asm__ volatile ("mv a0, %0" : : "r" (SyscallC::THREADEXIT));
 253              		.loc 1 45 5 is_stmt 1
 254              		.loc 1 45 66 is_stmt 0
 255 0118 93072001 		li	a5,18
 256              	#APP
 257              	# 45 "src/syscall_c.cpp" 1
  46              	    __asm__ volatile ("ecall");
 258              		mv a0, a5
 259              	# 0 "" 2
 260              		.loc 1 46 5 is_stmt 1
 261              		.loc 1 46 31 is_stmt 0
 262              	# 46 "src/syscall_c.cpp" 1
  47              	    __asm__ volatile ("mv %0, a0" : "=r" (ret));
 263              		ecall
 264              	# 0 "" 2
 265              		.loc 1 47 5 is_stmt 1
 266              		.loc 1 47 48 is_stmt 0
 267              	# 47 "src/syscall_c.cpp" 1
  48              	    return ret;
 268              		mv a5, a0
 269              	# 0 "" 2
 270              	#NO_APP
 271 0128 2326F4FE 		sw	a5,-20(s0)
 272              		.loc 1 48 5 is_stmt 1
 273              		.loc 1 48 12 is_stmt 0
 274 012c 0325C4FE 		lw	a0,-20(s0)
  49:src/syscall_c.cpp **** }
 275              		.loc 1 49 1
 276 0130 1B050500 		sext.w	a0,a0
 277 0134 03348101 		ld	s0,24(sp)
 278              		.cfi_restore 8
 279              		.cfi_def_cfa 2, 32
 280 0138 13010102 		addi	sp,sp,32
 281              		.cfi_def_cfa_offset 0
 282 013c 67800000 		jr	ra
 283              		.cfi_endproc
 284              	.LFE3:
 286              		.align	2
 287              		.globl	_Z15thread_dispatchv
 289              	_Z15thread_dispatchv:
 290              	.LFB4:
  50:src/syscall_c.cpp **** 
  51:src/syscall_c.cpp **** void thread_dispatch(){
 291              		.loc 1 51 23 is_stmt 1
 292              		.cfi_startproc
 293 0140 130101FF 		addi	sp,sp,-16
 294              		.cfi_def_cfa_offset 16
 295 0144 23348100 		sd	s0,8(sp)
 296              		.cfi_offset 8, -8
 297 0148 13040101 		addi	s0,sp,16
 298              		.cfi_def_cfa 8, 0
  52:src/syscall_c.cpp ****     __asm__ volatile ("mv a0, %0" : : "r" (SyscallC::DISPATCH));
GAS LISTING /tmp/ccYAo4sf.s 			page 7


 299              		.loc 1 52 5
 300              		.loc 1 52 64 is_stmt 0
 301 014c 93073001 		li	a5,19
 302              	#APP
 303              	# 52 "src/syscall_c.cpp" 1
  53              	    __asm__ volatile ("ecall");
 304              		mv a0, a5
 305              	# 0 "" 2
 306              		.loc 1 53 5 is_stmt 1
 307              		.loc 1 53 31 is_stmt 0
 308              	# 53 "src/syscall_c.cpp" 1
  54              	}
 309              		ecall
 310              	# 0 "" 2
 311              		.loc 1 54 1
 312              	#NO_APP
 313 0158 03348100 		ld	s0,8(sp)
 314              		.cfi_restore 8
 315              		.cfi_def_cfa 2, 16
 316 015c 13010101 		addi	sp,sp,16
 317              		.cfi_def_cfa_offset 0
 318 0160 67800000 		jr	ra
 319              		.cfi_endproc
 320              	.LFE4:
 322              		.align	2
 323              		.globl	_Z4getcv
 325              	_Z4getcv:
 326              	.LFB5:
  55:src/syscall_c.cpp **** 
  56:src/syscall_c.cpp **** 
  57:src/syscall_c.cpp **** char getc(){
 327              		.loc 1 57 12 is_stmt 1
 328              		.cfi_startproc
 329 0164 130101FE 		addi	sp,sp,-32
 330              		.cfi_def_cfa_offset 32
 331 0168 233C8100 		sd	s0,24(sp)
 332              		.cfi_offset 8, -8
 333 016c 13040102 		addi	s0,sp,32
 334              		.cfi_def_cfa 8, 0
  58:src/syscall_c.cpp ****     uint64 volatile ret = 0;
 335              		.loc 1 58 5
 336              		.loc 1 58 21 is_stmt 0
 337 0170 233404FE 		sd	zero,-24(s0)
  59:src/syscall_c.cpp ****     __asm__ volatile ("mv a0, %0" : : "r" (SyscallC::GETC));
 338              		.loc 1 59 5 is_stmt 1
 339              		.loc 1 59 60 is_stmt 0
 340 0174 93071004 		li	a5,65
 341              	#APP
 342              	# 59 "src/syscall_c.cpp" 1
  60              	    __asm__ volatile ("ecall");
 343              		mv a0, a5
 344              	# 0 "" 2
 345              		.loc 1 60 5 is_stmt 1
 346              		.loc 1 60 31 is_stmt 0
 347              	# 60 "src/syscall_c.cpp" 1
  61              	    __asm__ volatile ("mv %0, a0" : "=r" (ret));
 348              		ecall
GAS LISTING /tmp/ccYAo4sf.s 			page 8


 349              	# 0 "" 2
 350              		.loc 1 61 5 is_stmt 1
 351              		.loc 1 61 48 is_stmt 0
 352              	# 61 "src/syscall_c.cpp" 1
  62              	    return (char)ret;
 353              		mv a5, a0
 354              	# 0 "" 2
 355              	#NO_APP
 356 0184 2334F4FE 		sd	a5,-24(s0)
 357              		.loc 1 62 5 is_stmt 1
 358              		.loc 1 62 18 is_stmt 0
 359 0188 033584FE 		ld	a0,-24(s0)
  63:src/syscall_c.cpp **** }
 360              		.loc 1 63 1
 361 018c 1375F50F 		andi	a0,a0,0xff
 362 0190 03348101 		ld	s0,24(sp)
 363              		.cfi_restore 8
 364              		.cfi_def_cfa 2, 32
 365 0194 13010102 		addi	sp,sp,32
 366              		.cfi_def_cfa_offset 0
 367 0198 67800000 		jr	ra
 368              		.cfi_endproc
 369              	.LFE5:
 371              		.align	2
 372              		.globl	_Z4putcc
 374              	_Z4putcc:
 375              	.LFB6:
  64:src/syscall_c.cpp **** 
  65:src/syscall_c.cpp **** 
  66:src/syscall_c.cpp **** void putc(char c){
 376              		.loc 1 66 18 is_stmt 1
 377              		.cfi_startproc
 378              	.LVL13:
 379 019c 130101FF 		addi	sp,sp,-16
 380              		.cfi_def_cfa_offset 16
 381 01a0 23348100 		sd	s0,8(sp)
 382              		.cfi_offset 8, -8
 383 01a4 13040101 		addi	s0,sp,16
 384              		.cfi_def_cfa 8, 0
  67:src/syscall_c.cpp ****     __asm__ volatile ("mv a1, %0" : : "r" (c));
 385              		.loc 1 67 5
 386              		.loc 1 67 47 is_stmt 0
 387              	#APP
 388              	# 67 "src/syscall_c.cpp" 1
  68              	    __asm__ volatile ("mv a0, %0" : : "r" (SyscallC::PUTC));
 389              		mv a1, a0
 390              	# 0 "" 2
 391              		.loc 1 68 5 is_stmt 1
 392              		.loc 1 68 60 is_stmt 0
 393              	#NO_APP
 394 01ac 93072004 		li	a5,66
 395              	#APP
 396              	# 68 "src/syscall_c.cpp" 1
  69              	    __asm__ volatile ("ecall");
 397              		mv a0, a5
 398              	# 0 "" 2
 399              		.loc 1 69 5 is_stmt 1
GAS LISTING /tmp/ccYAo4sf.s 			page 9


 400              		.loc 1 69 31 is_stmt 0
 401              	# 69 "src/syscall_c.cpp" 1
  70              	}
 402              		ecall
 403              	# 0 "" 2
 404              		.loc 1 70 1
 405              	#NO_APP
 406 01b8 03348100 		ld	s0,8(sp)
 407              		.cfi_restore 8
 408              		.cfi_def_cfa 2, 16
 409 01bc 13010101 		addi	sp,sp,16
 410              		.cfi_def_cfa_offset 0
 411 01c0 67800000 		jr	ra
 412              		.cfi_endproc
 413              	.LFE6:
 415              		.align	2
 416              		.globl	_Z8sem_openPP4_semm
 418              	_Z8sem_openPP4_semm:
 419              	.LFB7:
  71:src/syscall_c.cpp **** 
  72:src/syscall_c.cpp **** 
  73:src/syscall_c.cpp **** int sem_open (sem_t* handle, uint64 init){
 420              		.loc 1 73 42 is_stmt 1
 421              		.cfi_startproc
 422              	.LVL14:
 423 01c4 130101FE 		addi	sp,sp,-32
 424              		.cfi_def_cfa_offset 32
 425 01c8 233C8100 		sd	s0,24(sp)
 426              		.cfi_offset 8, -8
 427 01cc 13040102 		addi	s0,sp,32
 428              		.cfi_def_cfa 8, 0
  74:src/syscall_c.cpp ****     int volatile ret = 0;
 429              		.loc 1 74 5
 430              		.loc 1 74 18 is_stmt 0
 431 01d0 232604FE 		sw	zero,-20(s0)
  75:src/syscall_c.cpp ****     __asm__ volatile ("mv a2, %0" : : "r" (init));
 432              		.loc 1 75 5 is_stmt 1
 433              		.loc 1 75 50 is_stmt 0
 434              	#APP
 435              	# 75 "src/syscall_c.cpp" 1
  76              	    __asm__ volatile ("mv a1, %0" : : "r" (handle));
 436              		mv a2, a1
 437              	# 0 "" 2
 438              		.loc 1 76 5 is_stmt 1
 439              		.loc 1 76 52 is_stmt 0
 440              	# 76 "src/syscall_c.cpp" 1
  77              	    __asm__ volatile ("mv a0, %0" : : "r" (SyscallC::SEMOPEN));
 441              		mv a1, a0
 442              	# 0 "" 2
 443              		.loc 1 77 5 is_stmt 1
 444              		.loc 1 77 63 is_stmt 0
 445              	#NO_APP
 446 01dc 93071002 		li	a5,33
 447              	#APP
 448              	# 77 "src/syscall_c.cpp" 1
  78              	    __asm__ volatile ("ecall");
 449              		mv a0, a5
GAS LISTING /tmp/ccYAo4sf.s 			page 10


 450              	# 0 "" 2
 451              		.loc 1 78 5 is_stmt 1
 452              		.loc 1 78 31 is_stmt 0
 453              	# 78 "src/syscall_c.cpp" 1
  79              	    __asm__ volatile ("mv %0, a0" : "=r" (ret));
 454              		ecall
 455              	# 0 "" 2
 456              		.loc 1 79 5 is_stmt 1
 457              		.loc 1 79 48 is_stmt 0
 458              	# 79 "src/syscall_c.cpp" 1
  80              	    return ret;
 459              		mv a5, a0
 460              	# 0 "" 2
 461              	#NO_APP
 462 01ec 2326F4FE 		sw	a5,-20(s0)
 463              		.loc 1 80 5 is_stmt 1
 464              		.loc 1 80 12 is_stmt 0
 465 01f0 0325C4FE 		lw	a0,-20(s0)
 466              	.LVL15:
  81:src/syscall_c.cpp **** }
 467              		.loc 1 81 1
 468 01f4 1B050500 		sext.w	a0,a0
 469 01f8 03348101 		ld	s0,24(sp)
 470              		.cfi_restore 8
 471              		.cfi_def_cfa 2, 32
 472 01fc 13010102 		addi	sp,sp,32
 473              		.cfi_def_cfa_offset 0
 474 0200 67800000 		jr	ra
 475              		.cfi_endproc
 476              	.LFE7:
 478              		.align	2
 479              		.globl	_Z9sem_closeP4_sem
 481              	_Z9sem_closeP4_sem:
 482              	.LFB8:
  82:src/syscall_c.cpp **** 
  83:src/syscall_c.cpp **** int sem_close (sem_t handle){
 483              		.loc 1 83 29 is_stmt 1
 484              		.cfi_startproc
 485              	.LVL16:
 486 0204 130101FE 		addi	sp,sp,-32
 487              		.cfi_def_cfa_offset 32
 488 0208 233C8100 		sd	s0,24(sp)
 489              		.cfi_offset 8, -8
 490 020c 13040102 		addi	s0,sp,32
 491              		.cfi_def_cfa 8, 0
  84:src/syscall_c.cpp ****     int volatile ret = 0;
 492              		.loc 1 84 5
 493              		.loc 1 84 18 is_stmt 0
 494 0210 232604FE 		sw	zero,-20(s0)
  85:src/syscall_c.cpp ****     __asm__ volatile ("mv a1, %0" : : "r" (handle));
 495              		.loc 1 85 5 is_stmt 1
 496              		.loc 1 85 52 is_stmt 0
 497              	#APP
 498              	# 85 "src/syscall_c.cpp" 1
  86              	    __asm__ volatile ("mv a0, %0" : : "r" (SyscallC::SEMCLOSE));
 499              		mv a1, a0
 500              	# 0 "" 2
GAS LISTING /tmp/ccYAo4sf.s 			page 11


 501              		.loc 1 86 5 is_stmt 1
 502              		.loc 1 86 64 is_stmt 0
 503              	#NO_APP
 504 0218 93072002 		li	a5,34
 505              	#APP
 506              	# 86 "src/syscall_c.cpp" 1
  87              	    __asm__ volatile ("ecall");
 507              		mv a0, a5
 508              	# 0 "" 2
 509              		.loc 1 87 5 is_stmt 1
 510              		.loc 1 87 31 is_stmt 0
 511              	# 87 "src/syscall_c.cpp" 1
  88              	    __asm__ volatile ("mv %0, a0" : "=r" (ret));
 512              		ecall
 513              	# 0 "" 2
 514              		.loc 1 88 5 is_stmt 1
 515              		.loc 1 88 48 is_stmt 0
 516              	# 88 "src/syscall_c.cpp" 1
  89              	    return ret;
 517              		mv a5, a0
 518              	# 0 "" 2
 519              	#NO_APP
 520 0228 2326F4FE 		sw	a5,-20(s0)
 521              		.loc 1 89 5 is_stmt 1
 522              		.loc 1 89 12 is_stmt 0
 523 022c 0325C4FE 		lw	a0,-20(s0)
 524              	.LVL17:
  90:src/syscall_c.cpp **** }
 525              		.loc 1 90 1
 526 0230 1B050500 		sext.w	a0,a0
 527 0234 03348101 		ld	s0,24(sp)
 528              		.cfi_restore 8
 529              		.cfi_def_cfa 2, 32
 530 0238 13010102 		addi	sp,sp,32
 531              		.cfi_def_cfa_offset 0
 532 023c 67800000 		jr	ra
 533              		.cfi_endproc
 534              	.LFE8:
 536              		.align	2
 537              		.globl	_Z8sem_waitP4_sem
 539              	_Z8sem_waitP4_sem:
 540              	.LFB9:
  91:src/syscall_c.cpp **** 
  92:src/syscall_c.cpp **** int sem_wait (sem_t handle){
 541              		.loc 1 92 28 is_stmt 1
 542              		.cfi_startproc
 543              	.LVL18:
 544 0240 130101FE 		addi	sp,sp,-32
 545              		.cfi_def_cfa_offset 32
 546 0244 233C8100 		sd	s0,24(sp)
 547              		.cfi_offset 8, -8
 548 0248 13040102 		addi	s0,sp,32
 549              		.cfi_def_cfa 8, 0
  93:src/syscall_c.cpp ****     int volatile ret = 0;
 550              		.loc 1 93 5
 551              		.loc 1 93 18 is_stmt 0
 552 024c 232604FE 		sw	zero,-20(s0)
GAS LISTING /tmp/ccYAo4sf.s 			page 12


  94:src/syscall_c.cpp ****     __asm__ volatile ("mv a1, %0" : : "r" (handle));
 553              		.loc 1 94 5 is_stmt 1
 554              		.loc 1 94 52 is_stmt 0
 555              	#APP
 556              	# 94 "src/syscall_c.cpp" 1
  95              	    __asm__ volatile ("mv a0, %0" : : "r" (SyscallC::SEMWAIT));
 557              		mv a1, a0
 558              	# 0 "" 2
 559              		.loc 1 95 5 is_stmt 1
 560              		.loc 1 95 63 is_stmt 0
 561              	#NO_APP
 562 0254 93073002 		li	a5,35
 563              	#APP
 564              	# 95 "src/syscall_c.cpp" 1
  96              	    __asm__ volatile ("ecall");
 565              		mv a0, a5
 566              	# 0 "" 2
 567              		.loc 1 96 5 is_stmt 1
 568              		.loc 1 96 31 is_stmt 0
 569              	# 96 "src/syscall_c.cpp" 1
  97              	    __asm__ volatile ("mv %0, a0" : "=r" (ret));
 570              		ecall
 571              	# 0 "" 2
 572              		.loc 1 97 5 is_stmt 1
 573              		.loc 1 97 48 is_stmt 0
 574              	# 97 "src/syscall_c.cpp" 1
  98              	    return ret;
 575              		mv a5, a0
 576              	# 0 "" 2
 577              	#NO_APP
 578 0264 2326F4FE 		sw	a5,-20(s0)
 579              		.loc 1 98 5 is_stmt 1
 580              		.loc 1 98 12 is_stmt 0
 581 0268 0325C4FE 		lw	a0,-20(s0)
 582              	.LVL19:
  99:src/syscall_c.cpp **** }
 583              		.loc 1 99 1
 584 026c 1B050500 		sext.w	a0,a0
 585 0270 03348101 		ld	s0,24(sp)
 586              		.cfi_restore 8
 587              		.cfi_def_cfa 2, 32
 588 0274 13010102 		addi	sp,sp,32
 589              		.cfi_def_cfa_offset 0
 590 0278 67800000 		jr	ra
 591              		.cfi_endproc
 592              	.LFE9:
 594              		.align	2
 595              		.globl	_Z10sem_signalP4_sem
 597              	_Z10sem_signalP4_sem:
 598              	.LFB10:
 100:src/syscall_c.cpp **** 
 101:src/syscall_c.cpp **** int sem_signal (sem_t handle){
 599              		.loc 1 101 30 is_stmt 1
 600              		.cfi_startproc
 601              	.LVL20:
 602 027c 130101FE 		addi	sp,sp,-32
 603              		.cfi_def_cfa_offset 32
GAS LISTING /tmp/ccYAo4sf.s 			page 13


 604 0280 233C8100 		sd	s0,24(sp)
 605              		.cfi_offset 8, -8
 606 0284 13040102 		addi	s0,sp,32
 607              		.cfi_def_cfa 8, 0
 102:src/syscall_c.cpp ****     int volatile ret = 0;
 608              		.loc 1 102 5
 609              		.loc 1 102 18 is_stmt 0
 610 0288 232604FE 		sw	zero,-20(s0)
 103:src/syscall_c.cpp ****     __asm__ volatile ("mv a1, %0" : : "r" (handle));
 611              		.loc 1 103 5 is_stmt 1
 612              		.loc 1 103 52 is_stmt 0
 613              	#APP
 614              	# 103 "src/syscall_c.cpp" 1
 104              	    __asm__ volatile ("mv a0, %0" : : "r" (SyscallC::SEMSIGNAL));
 615              		mv a1, a0
 616              	# 0 "" 2
 617              		.loc 1 104 5 is_stmt 1
 618              		.loc 1 104 65 is_stmt 0
 619              	#NO_APP
 620 0290 93074002 		li	a5,36
 621              	#APP
 622              	# 104 "src/syscall_c.cpp" 1
 105              	    __asm__ volatile ("ecall");
 623              		mv a0, a5
 624              	# 0 "" 2
 625              		.loc 1 105 5 is_stmt 1
 626              		.loc 1 105 31 is_stmt 0
 627              	# 105 "src/syscall_c.cpp" 1
 106              	    __asm__ volatile ("mv %0, a0" : "=r" (ret));
 628              		ecall
 629              	# 0 "" 2
 630              		.loc 1 106 5 is_stmt 1
 631              		.loc 1 106 48 is_stmt 0
 632              	# 106 "src/syscall_c.cpp" 1
 107              	    return ret;
 633              		mv a5, a0
 634              	# 0 "" 2
 635              	#NO_APP
 636 02a0 2326F4FE 		sw	a5,-20(s0)
 637              		.loc 1 107 5 is_stmt 1
 638              		.loc 1 107 12 is_stmt 0
 639 02a4 0325C4FE 		lw	a0,-20(s0)
 640              	.LVL21:
 108:src/syscall_c.cpp **** }
 641              		.loc 1 108 1
 642 02a8 1B050500 		sext.w	a0,a0
 643 02ac 03348101 		ld	s0,24(sp)
 644              		.cfi_restore 8
 645              		.cfi_def_cfa 2, 32
 646 02b0 13010102 		addi	sp,sp,32
 647              		.cfi_def_cfa_offset 0
 648 02b4 67800000 		jr	ra
 649              		.cfi_endproc
 650              	.LFE10:
 652              		.align	2
 653              		.globl	_Z11sem_trywaitP4_sem
 655              	_Z11sem_trywaitP4_sem:
GAS LISTING /tmp/ccYAo4sf.s 			page 14


 656              	.LFB11:
 109:src/syscall_c.cpp **** 
 110:src/syscall_c.cpp **** int sem_trywait (sem_t handle){
 657              		.loc 1 110 31 is_stmt 1
 658              		.cfi_startproc
 659              	.LVL22:
 660 02b8 130101FE 		addi	sp,sp,-32
 661              		.cfi_def_cfa_offset 32
 662 02bc 233C8100 		sd	s0,24(sp)
 663              		.cfi_offset 8, -8
 664 02c0 13040102 		addi	s0,sp,32
 665              		.cfi_def_cfa 8, 0
 111:src/syscall_c.cpp ****     int volatile ret = 0;
 666              		.loc 1 111 5
 667              		.loc 1 111 18 is_stmt 0
 668 02c4 232604FE 		sw	zero,-20(s0)
 112:src/syscall_c.cpp ****     __asm__ volatile ("mv a1, %0" : : "r" (handle));
 669              		.loc 1 112 5 is_stmt 1
 670              		.loc 1 112 52 is_stmt 0
 671              	#APP
 672              	# 112 "src/syscall_c.cpp" 1
 113              	    __asm__ volatile ("mv a0, %0" : : "r" (SyscallC::SEMTRYWAIT));
 673              		mv a1, a0
 674              	# 0 "" 2
 675              		.loc 1 113 5 is_stmt 1
 676              		.loc 1 113 66 is_stmt 0
 677              	#NO_APP
 678 02cc 93076002 		li	a5,38
 679              	#APP
 680              	# 113 "src/syscall_c.cpp" 1
 114              	    __asm__ volatile ("ecall");
 681              		mv a0, a5
 682              	# 0 "" 2
 683              		.loc 1 114 5 is_stmt 1
 684              		.loc 1 114 31 is_stmt 0
 685              	# 114 "src/syscall_c.cpp" 1
 115              	    __asm__ volatile ("mv %0, a0" : "=r" (ret));
 686              		ecall
 687              	# 0 "" 2
 688              		.loc 1 115 5 is_stmt 1
 689              		.loc 1 115 48 is_stmt 0
 690              	# 115 "src/syscall_c.cpp" 1
 116              	    return ret;
 691              		mv a5, a0
 692              	# 0 "" 2
 693              	#NO_APP
 694 02dc 2326F4FE 		sw	a5,-20(s0)
 695              		.loc 1 116 5 is_stmt 1
 696              		.loc 1 116 12 is_stmt 0
 697 02e0 0325C4FE 		lw	a0,-20(s0)
 698              	.LVL23:
 117:src/syscall_c.cpp **** }...
 699              		.loc 1 117 1
 700 02e4 1B050500 		sext.w	a0,a0
 701 02e8 03348101 		ld	s0,24(sp)
 702              		.cfi_restore 8
 703              		.cfi_def_cfa 2, 32
GAS LISTING /tmp/ccYAo4sf.s 			page 15


 704 02ec 13010102 		addi	sp,sp,32
 705              		.cfi_def_cfa_offset 0
 706 02f0 67800000 		jr	ra
 707              		.cfi_endproc
 708              	.LFE11:
 710              	.Letext0:
 711              		.file 2 "src/../h/../lib/hw.h"
 712              		.file 3 "src/../h/syscall_c.hpp"
GAS LISTING /tmp/ccYAo4sf.s 			page 16

