GAS LISTING /tmp/cc6QIeqT.s 			page 1


   1              		.file	"tcb.cpp"
   2              		.option pic
   3              		.option norelax
   4              		.text
   5              	.Ltext0:
   6              		.align	2
   7              		.globl	_ZN3TCB13threadWrapperEv
   9              	_ZN3TCB13threadWrapperEv:
  10              	.LFB29:
  11              		.file 1 "src/tcb.cpp"
   1:src/tcb.cpp   **** //
   2:src/tcb.cpp   **** // Created by os on 8/20/24.
   3:src/tcb.cpp   **** //
   4:src/tcb.cpp   **** 
   5:src/tcb.cpp   **** #include "../h/syscall_c.hpp"
   6:src/tcb.cpp   **** #include "../h/tcb.hpp"
   7:src/tcb.cpp   **** #include "../h/riscv.hpp"
   8:src/tcb.cpp   **** 
   9:src/tcb.cpp   **** TCB *TCB::running = 0;
  10:src/tcb.cpp   **** 
  11:src/tcb.cpp   **** TCB *TCB::createThread(Body body, void* arg, char* stack) {
  12:src/tcb.cpp   ****     return new TCB(body, arg, stack);
  13:src/tcb.cpp   **** }
  14:src/tcb.cpp   **** 
  15:src/tcb.cpp   **** void TCB::dispatch()
  16:src/tcb.cpp   **** {
  17:src/tcb.cpp   ****     TCB* old = running;
  18:src/tcb.cpp   ****     if(!old->getFinished() && old->getActive()) {Scheduler::put(old);}
  19:src/tcb.cpp   ****     running = Scheduler::get();
  20:src/tcb.cpp   **** 
  21:src/tcb.cpp   ****     TCB::contextSwitch(&old->context, &running->context);
  22:src/tcb.cpp   **** }
  23:src/tcb.cpp   **** 
  24:src/tcb.cpp   **** void TCB::threadWrapper() {
  12              		.loc 1 24 27
  13              		.cfi_startproc
  14 0000 130101FF 		addi	sp,sp,-16
  15              		.cfi_def_cfa_offset 16
  16 0004 23341100 		sd	ra,8(sp)
  17 0008 23308100 		sd	s0,0(sp)
  18              		.cfi_offset 1, -8
  19              		.cfi_offset 8, -16
  20 000c 13040101 		addi	s0,sp,16
  21              		.cfi_def_cfa 8, 0
  25:src/tcb.cpp   ****     Riscv::popSPPSPIE();
  22              		.loc 1 25 5
  23              		.loc 1 25 22 is_stmt 0
  24 0010 97000000 		call	_ZN5Riscv10popSPPSPIEEv@plt
  24      E7800000 
  25              	.LVL0:
  26:src/tcb.cpp   ****     running->body(running->arg);
  26              		.loc 1 26 5 is_stmt 1
  27              		.loc 1 26 14 is_stmt 0
  28 0018 97070000 		ld	a5,.LANCHOR0
  28      83B70700 
  29 0020 03B70700 		ld	a4,0(a5)
  30              		.loc 1 26 18
GAS LISTING /tmp/cc6QIeqT.s 			page 2


  31 0024 03B58700 		ld	a0,8(a5)
  32 0028 E7000700 		jalr	a4
  33              	.LVL1:
  27:src/tcb.cpp   ****     thread_exit();
  34              		.loc 1 27 5 is_stmt 1
  35              		.loc 1 27 16 is_stmt 0
  36 002c 97000000 		call	_Z11thread_exitv@plt
  36      E7800000 
  37              	.LVL2:
  28:src/tcb.cpp   **** }
  38              		.loc 1 28 1
  39 0034 83308100 		ld	ra,8(sp)
  40              		.cfi_restore 1
  41 0038 03340100 		ld	s0,0(sp)
  42              		.cfi_restore 8
  43              		.cfi_def_cfa 2, 16
  44 003c 13010101 		addi	sp,sp,16
  45              		.cfi_def_cfa_offset 0
  46 0040 67800000 		jr	ra
  47              		.cfi_endproc
  48              	.LFE29:
  50              		.align	2
  51              		.globl	_ZN3TCB12createThreadEPFvPvES0_Pc
  53              	_ZN3TCB12createThreadEPFvPvES0_Pc:
  54              	.LFB27:
  11:src/tcb.cpp   ****     return new TCB(body, arg, stack);
  55              		.loc 1 11 59 is_stmt 1
  56              		.cfi_startproc
  57              		.cfi_personality 0x9b,DW.ref.__gxx_personality_v0
  58              		.cfi_lsda 0x1b,.LLSDA27
  59              	.LVL3:
  60 0044 130101FD 		addi	sp,sp,-48
  61              		.cfi_def_cfa_offset 48
  62 0048 23341102 		sd	ra,40(sp)
  63 004c 23308102 		sd	s0,32(sp)
  64 0050 233C9100 		sd	s1,24(sp)
  65 0054 23382101 		sd	s2,16(sp)
  66 0058 23343101 		sd	s3,8(sp)
  67 005c 23304101 		sd	s4,0(sp)
  68              		.cfi_offset 1, -8
  69              		.cfi_offset 8, -16
  70              		.cfi_offset 9, -24
  71              		.cfi_offset 18, -32
  72              		.cfi_offset 19, -40
  73              		.cfi_offset 20, -48
  74 0060 13040103 		addi	s0,sp,48
  75              		.cfi_def_cfa 8, 0
  76 0064 93090500 		mv	s3,a0
  77 0068 138A0500 		mv	s4,a1
  78 006c 13090600 		mv	s2,a2
  12:src/tcb.cpp   **** }
  79              		.loc 1 12 5
  12:src/tcb.cpp   **** }
  80              		.loc 1 12 36 is_stmt 0
  81 0070 13050003 		li	a0,48
  82              	.LVL4:
  83              	.LEHB0:
GAS LISTING /tmp/cc6QIeqT.s 			page 3


  84 0074 97000000 		call	_Znwm@plt
  84      E7800000 
  85              	.LVL5:
  86              	.LEHE0:
  87 007c 93040500 		mv	s1,a0
  88              	.LVL6:
  89              	.LBB9:
  90              	.LBB10:
  91              		.file 2 "src/../h/tcb.hpp"
   1:src/../h/tcb.hpp **** //
   2:src/../h/tcb.hpp **** // Created by os on 8/20/24.
   3:src/../h/tcb.hpp **** //
   4:src/../h/tcb.hpp **** 
   5:src/../h/tcb.hpp **** #ifndef PROJECT_BASE_TCB_HPP
   6:src/../h/tcb.hpp **** #define PROJECT_BASE_TCB_HPP
   7:src/../h/tcb.hpp **** 
   8:src/../h/tcb.hpp **** #include "scheduler.hpp"
   9:src/../h/tcb.hpp **** 
  10:src/../h/tcb.hpp **** 
  11:src/../h/tcb.hpp **** class TCB {
  12:src/../h/tcb.hpp **** 
  13:src/../h/tcb.hpp **** public:
  14:src/../h/tcb.hpp **** 
  15:src/../h/tcb.hpp ****     bool getFinished () const { return finished; }
  16:src/../h/tcb.hpp ****     void setFinished (bool val) { finished = val; }
  17:src/../h/tcb.hpp **** 
  18:src/../h/tcb.hpp ****     bool getActive () const { return active; }
  19:src/../h/tcb.hpp ****     void setActive (bool val) { active = val; }
  20:src/../h/tcb.hpp **** 
  21:src/../h/tcb.hpp ****     using Body = void (*)(void*);
  22:src/../h/tcb.hpp **** 
  23:src/../h/tcb.hpp ****     static TCB *createThread (Body body, void* arg, char* stack);
  24:src/../h/tcb.hpp ****     static TCB* running;
  25:src/../h/tcb.hpp **** 
  26:src/../h/tcb.hpp ****     static void threadWrapper();
  27:src/../h/tcb.hpp ****     static void threadExit();
  28:src/../h/tcb.hpp **** 
  29:src/../h/tcb.hpp ****     TCB (Body body, void* arg, char* stack) : body(body), arg(arg), stack(stack),
  30:src/../h/tcb.hpp ****                                               context({stack != nullptr ? (uint64) stack + DEFAULT_
  31:src/../h/tcb.hpp ****                                               active(true), finished(false)
  92              		.loc 2 31 75
  93 0080 23303501 		sd	s3,0(a0)
  94 0084 23344501 		sd	s4,8(a0)
  95 0088 23382501 		sd	s2,16(a0)
  30:src/../h/tcb.hpp ****                                               active(true), finished(false)
  96              		.loc 2 30 73
  97 008c 630E0902 		beqz	s2,.L7
  98 0090 37160000 		li	a2,4096
  99 0094 3309C900 		add	s2,s2,a2
 100              	.LVL7:
 101              	.L4:
 102              		.loc 2 31 75
 103 0098 23BC2401 		sd	s2,24(s1)
 104 009c 97070000 		lla	a5,_ZN3TCB13threadWrapperEv
 104      93870700 
 105 00a4 23B0F402 		sd	a5,32(s1)
 106 00a8 93071000 		li	a5,1
GAS LISTING /tmp/cc6QIeqT.s 			page 4


 107 00ac 2384F402 		sb	a5,40(s1)
 108 00b0 A3840402 		sb	zero,41(s1)
  32:src/../h/tcb.hpp ****     {
  33:src/../h/tcb.hpp ****         if (body != nullptr) {Scheduler::put(this);}
 109              		.loc 2 33 9 is_stmt 1
 110 00b4 638C0902 		beqz	s3,.L3
 111              		.loc 2 33 31
 112              		.loc 2 33 45 is_stmt 0
 113 00b8 13850400 		mv	a0,s1
 114              	.LEHB1:
 115 00bc 97000000 		call	_ZN9Scheduler3putEP3TCB@plt
 115      E7800000 
 116              	.LVL8:
 117              	.LEHE1:
 118 00c4 6F008002 		j	.L3
 119              	.LVL9:
 120              	.L7:
  30:src/../h/tcb.hpp ****                                               active(true), finished(false)
 121              		.loc 2 30 73
 122 00c8 13090000 		li	s2,0
 123              	.LVL10:
 124 00cc 6FF0DFFC 		j	.L4
 125              	.LVL11:
 126              	.L8:
 127 00d0 13090500 		mv	s2,a0
 128              	.LBE10:
 129              	.LBE9:
  12:src/tcb.cpp   **** }
 130              		.loc 1 12 36
 131 00d4 13850400 		mv	a0,s1
 132 00d8 97000000 		call	_ZdlPv@plt
 132      E7800000 
 133              	.LVL12:
 134 00e0 13050900 		mv	a0,s2
 135              	.LEHB2:
 136 00e4 97000000 		call	_Unwind_Resume@plt
 136      E7800000 
 137              	.LVL13:
 138              	.LEHE2:
 139              	.L3:
  13:src/tcb.cpp   **** 
 140              		.loc 1 13 1
 141 00ec 13850400 		mv	a0,s1
 142 00f0 83308102 		ld	ra,40(sp)
 143              		.cfi_restore 1
 144 00f4 03340102 		ld	s0,32(sp)
 145              		.cfi_restore 8
 146              		.cfi_def_cfa 2, 48
 147 00f8 83348101 		ld	s1,24(sp)
 148              		.cfi_restore 9
 149              	.LVL14:
 150 00fc 03390101 		ld	s2,16(sp)
 151              		.cfi_restore 18
 152 0100 83398100 		ld	s3,8(sp)
 153              		.cfi_restore 19
 154              	.LVL15:
 155 0104 033A0100 		ld	s4,0(sp)
GAS LISTING /tmp/cc6QIeqT.s 			page 5


 156              		.cfi_restore 20
 157              	.LVL16:
 158 0108 13010103 		addi	sp,sp,48
 159              		.cfi_def_cfa_offset 0
 160 010c 67800000 		jr	ra
 161              		.cfi_endproc
 162              	.LFE27:
 163              		.globl	__gxx_personality_v0
 164              		.section	.gcc_except_table,"a",@progbits
 165              	.LLSDA27:
 166 0000 FF       		.byte	0xff
 167 0001 FF       		.byte	0xff
 168 0002 03       		.byte	0x3
 169 0003 27       		.byte	0x27
 170 0004 00000000 		.4byte	.LEHB0-.LFB27
 171 0008 00000000 		.4byte	.LEHE0-.LEHB0
 172 000c 00000000 		.4byte	0
 173 0010 00       		.byte	0
 174 0011 00000000 		.4byte	.LEHB1-.LFB27
 175 0015 00000000 		.4byte	.LEHE1-.LEHB1
 176 0019 00000000 		.4byte	.L8-.LFB27
 177 001d 00       		.byte	0
 178 001e 00000000 		.4byte	.LEHB2-.LFB27
 179 0022 00000000 		.4byte	.LEHE2-.LEHB2
 180 0026 00000000 		.4byte	0
 181 002a 00       		.byte	0
 182              		.text
 184              		.align	2
 185              		.globl	_ZN3TCB8dispatchEv
 187              	_ZN3TCB8dispatchEv:
 188              	.LFB28:
  16:src/tcb.cpp   ****     TCB* old = running;
 189              		.loc 1 16 1 is_stmt 1
 190              		.cfi_startproc
 191 0110 130101FE 		addi	sp,sp,-32
 192              		.cfi_def_cfa_offset 32
 193 0114 233C1100 		sd	ra,24(sp)
 194 0118 23388100 		sd	s0,16(sp)
 195 011c 23349100 		sd	s1,8(sp)
 196              		.cfi_offset 1, -8
 197              		.cfi_offset 8, -16
 198              		.cfi_offset 9, -24
 199 0120 13040102 		addi	s0,sp,32
 200              		.cfi_def_cfa 8, 0
  17:src/tcb.cpp   ****     if(!old->getFinished() && old->getActive()) {Scheduler::put(old);}
 201              		.loc 1 17 5
  17:src/tcb.cpp   ****     if(!old->getFinished() && old->getActive()) {Scheduler::put(old);}
 202              		.loc 1 17 10 is_stmt 0
 203 0124 97040000 		ld	s1,.LANCHOR0
 203      83B40400 
 204              	.LVL17:
  18:src/tcb.cpp   ****     running = Scheduler::get();
 205              		.loc 1 18 5 is_stmt 1
 206              	.LBB11:
 207              	.LBB12:
  15:src/../h/tcb.hpp ****     void setFinished (bool val) { finished = val; }
 208              		.loc 2 15 33
GAS LISTING /tmp/cc6QIeqT.s 			page 6


  15:src/../h/tcb.hpp ****     void setFinished (bool val) { finished = val; }
 209              		.loc 2 15 40 is_stmt 0
 210 012c 83C79402 		lbu	a5,41(s1)
 211              	.LVL18:
 212              	.LBE12:
 213              	.LBE11:
  18:src/tcb.cpp   ****     running = Scheduler::get();
 214              		.loc 1 18 28
 215 0130 63960700 		bnez	a5,.L11
 216              	.LVL19:
 217              	.LBB13:
 218              	.LBB14:
  18:src/../h/tcb.hpp ****     void setActive (bool val) { active = val; }
 219              		.loc 2 18 31 is_stmt 1
  18:src/../h/tcb.hpp ****     void setActive (bool val) { active = val; }
 220              		.loc 2 18 38 is_stmt 0
 221 0134 83C78402 		lbu	a5,40(s1)
 222              	.LVL20:
 223              	.LBE14:
 224              	.LBE13:
  18:src/tcb.cpp   ****     running = Scheduler::get();
 225              		.loc 1 18 28
 226 0138 639C0702 		bnez	a5,.L13
 227              	.L11:
  19:src/tcb.cpp   **** 
 228              		.loc 1 19 5 is_stmt 1
  19:src/tcb.cpp   **** 
 229              		.loc 1 19 29 is_stmt 0
 230 013c 97000000 		call	_ZN9Scheduler3getEv@plt
 230      E7800000 
 231              	.LVL21:
  19:src/tcb.cpp   **** 
 232              		.loc 1 19 13
 233 0144 97070000 		sd	a0,.LANCHOR0,a5
 233      23B0A700 
  21:src/tcb.cpp   **** }
 234              		.loc 1 21 5 is_stmt 1
  21:src/tcb.cpp   **** }
 235              		.loc 1 21 23 is_stmt 0
 236 014c 93058501 		addi	a1,a0,24
 237 0150 13858401 		addi	a0,s1,24
 238 0154 97000000 		call	_ZN3TCB13contextSwitchEPNS_7ContextES1_@plt
 238      E7800000 
 239              	.LVL22:
  22:src/tcb.cpp   **** 
 240              		.loc 1 22 1
 241 015c 83308101 		ld	ra,24(sp)
 242              		.cfi_remember_state
 243              		.cfi_restore 1
 244 0160 03340101 		ld	s0,16(sp)
 245              		.cfi_restore 8
 246              		.cfi_def_cfa 2, 32
 247 0164 83348100 		ld	s1,8(sp)
 248              		.cfi_restore 9
 249              	.LVL23:
 250 0168 13010102 		addi	sp,sp,32
 251              		.cfi_def_cfa_offset 0
GAS LISTING /tmp/cc6QIeqT.s 			page 7


 252 016c 67800000 		jr	ra
 253              	.LVL24:
 254              	.L13:
 255              		.cfi_restore_state
  18:src/tcb.cpp   ****     running = Scheduler::get();
 256              		.loc 1 18 50 is_stmt 1
  18:src/tcb.cpp   ****     running = Scheduler::get();
 257              		.loc 1 18 64 is_stmt 0
 258 0170 13850400 		mv	a0,s1
 259 0174 97000000 		call	_ZN9Scheduler3putEP3TCB@plt
 259      E7800000 
 260              	.LVL25:
 261 017c 6FF01FFC 		j	.L11
 262              		.cfi_endproc
 263              	.LFE28:
 265              		.globl	_ZN3TCB7runningE
 266              		.bss
 267              		.align	3
 268              		.set	.LANCHOR0,. + 0
 271              	_ZN3TCB7runningE:
 272 0000 00000000 		.zero	8
 272      00000000 
 273              		.text
 274              	.Letext0:
 275              		.file 3 "src/../h/../lib/hw.h"
 276              		.file 4 "src/../h/list.hpp"
 277              		.file 5 "src/../h/scheduler.hpp"
 278              		.file 6 "src/../h/riscv.hpp"
 279              		.file 7 "src/../h/syscall_c.hpp"
 2664              		.align	3
 2667              	DW.ref.__gxx_personality_v0:
 2668 0000 00000000 		.dword	__gxx_personality_v0
 2668      00000000 
 2669              		.ident	"GCC: (Ubuntu 9.4.0-1ubuntu1~20.04) 9.4.0"
 2670              		.section	.note.GNU-stack,"",@progbits
GAS LISTING /tmp/cc6QIeqT.s 			page 8

